(dp1
S'files'
p2
(dp3
S'_usr_local_lib_python2_7_dist-packages_django_utils_http'
p4
(dp5
S'index'
p6
(dp7
S'html_filename'
p8
S'_usr_local_lib_python2_7_dist-packages_django_utils_http.html'
p9
sS'name'
p10
S'/usr/local/lib/python2.7/dist-packages/django/utils/http'
p11
sS'nums'
p12
ccopy_reg
_reconstructor
p13
(ccoverage.results
Numbers
p14
c__builtin__
object
p15
NtRp16
(dp17
S'n_files'
p18
I1
sS'n_branches'
p19
I0
sS'n_statements'
p20
I134
sS'n_excluded'
p21
I0
sS'n_partial_branches'
p22
I0
sS'n_missing'
p23
I89
sS'n_missing_branches'
p24
I0
sbssS'hash'
p25
S')\xd9\x98R\x89\xbd\xed1\xb5\xad\xeb\xa3\x94\x19]\xce'
p26
ssS'_usr_local_lib_python2_7_dist-packages_django_core_serializers_json'
p27
(dp28
g6
(dp29
g8
S'_usr_local_lib_python2_7_dist-packages_django_core_serializers_json.html'
p30
sg10
S'/usr/local/lib/python2.7/dist-packages/django/core/serializers/json'
p31
sg12
g13
(g14
g15
NtRp32
(dp33
g18
I1
sg19
I0
sg20
I76
sg21
I0
sg22
I0
sg23
I36
sg24
I0
sbssg25
S'\xb3"\x8d\xec\x0cU\xb4`\t&}$u0\x06\x96'
p34
ssS'_usr_local_lib_python2_7_dist-packages_django_core_files_temp'
p35
(dp36
g6
(dp37
g8
S'_usr_local_lib_python2_7_dist-packages_django_core_files_temp.html'
p38
sg10
S'/usr/local/lib/python2.7/dist-packages/django/core/files/temp'
p39
sg12
g13
(g14
g15
NtRp40
(dp41
g18
I1
sg19
I0
sg20
I35
sg21
I0
sg22
I0
sg23
I28
sg24
I0
sbssg25
S'?1\x91u0T|[< \x85\xce\xee~\x84?'
p42
ssS'_usr_local_lib_python2_7_dist-packages_django_contrib_sessions_backends_db'
p43
(dp44
g6
(dp45
g8
S'_usr_local_lib_python2_7_dist-packages_django_contrib_sessions_backends_db.html'
p46
sg10
S'/usr/local/lib/python2.7/dist-packages/django/contrib/sessions/backends/db'
p47
sg12
g13
(g14
g15
NtRp48
(dp49
g18
I1
sg19
I0
sg20
I53
sg21
I0
sg22
I0
sg23
I38
sg24
I0
sbssg25
S'\xe2\xa4\x1ce\xa1\x0e\xbc\xa6\x9a\xf4\xe0X\x8ca\xb1s'
p50
ssS'_usr_local_lib_python2_7_dist-packages_django_db_backends_postgresql_psycopg2_introspection'
p51
(dp52
g6
(dp53
g8
S'_usr_local_lib_python2_7_dist-packages_django_db_backends_postgresql_psycopg2_introspection.html'
p54
sg10
S'/usr/local/lib/python2.7/dist-packages/django/db/backends/postgresql_psycopg2/introspection'
p55
sg12
g13
(g14
g15
NtRp56
(dp57
g18
I1
sg19
I0
sg20
I55
sg21
I0
sg22
I0
sg23
I41
sg24
I0
sbssg25
S'\xb0\xc8\x896\xa0\xc5\xf3\xbb\xd0\xe9\xc5\xe9xQ\xd4\x8c'
p58
ssS'_usr_local_lib_python2_7_dist-packages_django_core_files_utils'
p59
(dp60
g6
(dp61
g8
S'_usr_local_lib_python2_7_dist-packages_django_core_files_utils.html'
p62
sg10
S'/usr/local/lib/python2.7/dist-packages/django/core/files/utils'
p63
sg12
g13
(g14
g15
NtRp64
(dp65
g18
I1
sg19
I0
sg20
I19
sg21
I0
sg22
I0
sg23
I1
sg24
I0
sbssg25
S'\xf9\x11l\xd6u\x8d\xd2\xe3g\x05F\xd6{F\x15\xdc'
p66
ssS'_usr_local_lib_python2_7_dist-packages_django_contrib_staticfiles_apps'
p67
(dp68
g6
(dp69
g8
S'_usr_local_lib_python2_7_dist-packages_django_contrib_staticfiles_apps.html'
p70
sg10
S'/usr/local/lib/python2.7/dist-packages/django/contrib/staticfiles/apps'
p71
sg12
g13
(g14
g15
NtRp72
(dp73
g18
I1
sg19
I0
sg20
I5
sg21
I0
sg22
I0
sg23
I0
sg24
I0
sbssg25
S"\xe0\xa6G+$\x97'\xf2\x1a\xd3h\xe0\xc5l\xc3*"
p74
ssS'_usr_local_lib_python2_7_dist-packages_django_core_files_storage'
p75
(dp76
g6
(dp77
g8
S'_usr_local_lib_python2_7_dist-packages_django_core_files_storage.html'
p78
sg10
S'/usr/local/lib/python2.7/dist-packages/django/core/files/storage'
p79
sg12
g13
(g14
g15
NtRp80
(dp81
g18
I1
sg19
I0
sg20
I153
sg21
I0
sg22
I0
sg23
I105
sg24
I0
sbssg25
S'\xd1\xa8T\x18\\\x92\xa04\x119\xdf\x11{\xe4\x07\x9a'
p82
ssS'_usr_local_lib_python2_7_dist-packages_django_db_migrations_recorder'
p83
(dp84
g6
(dp85
g8
S'_usr_local_lib_python2_7_dist-packages_django_db_migrations_recorder.html'
p86
sg10
S'/usr/local/lib/python2.7/dist-packages/django/db/migrations/recorder'
p87
sg12
g13
(g14
g15
NtRp88
(dp89
g18
I1
sg19
I0
sg20
I37
sg21
I0
sg22
I0
sg23
I4
sg24
I0
sbssg25
S'\x85\xa4PB\x15\xf3\xad\xdf\xe7w\x17\xf2{S\x8c\xce'
p90
ssS'_usr_local_lib_python2_7_dist-packages_django_http___init__'
p91
(dp92
g6
(dp93
g8
S'_usr_local_lib_python2_7_dist-packages_django_http___init__.html'
p94
sg10
S'/usr/local/lib/python2.7/dist-packages/django/http/__init__'
p95
sg12
g13
(g14
g15
NtRp96
(dp97
g18
I1
sg19
I0
sg20
I5
sg21
I0
sg22
I0
sg23
I0
sg24
I0
sbssg25
S'\xb8\xf1\xd8\xe0\x9f\x0b\x10\xd2eE\xe7\x08\x92\x97\x12\xac'
p98
ssS'_usr_local_lib_python2_7_dist-packages_django_core_handlers___init__'
p99
(dp100
g6
(dp101
g8
S'_usr_local_lib_python2_7_dist-packages_django_core_handlers___init__.html'
p102
sg10
S'/usr/local/lib/python2.7/dist-packages/django/core/handlers/__init__'
p103
sg12
g13
(g14
g15
NtRp104
(dp105
g18
I1
sg19
I0
sg20
I0
sg21
I0
sg22
I0
sg23
I0
sg24
I0
sbssg25
S'\xca\xf5\x9f\x7f\x88\xdfa\x831|T\x1d\xbc}\xa5v'
p106
ssS'_usr_local_lib_python2_7_dist-packages_django_utils_ipv6'
p107
(dp108
g6
(dp109
g8
S'_usr_local_lib_python2_7_dist-packages_django_utils_ipv6.html'
p110
sg10
S'/usr/local/lib/python2.7/dist-packages/django/utils/ipv6'
p111
sg12
g13
(g14
g15
NtRp112
(dp113
g18
I1
sg19
I0
sg20
I108
sg21
I0
sg22
I0
sg23
I99
sg24
I0
sbssg25
S'\xd0\x14\xc1B\x89W\x94A\xbc\x91\x18*\xc66\x11\x05'
p114
ssS'_usr_local_lib_python2_7_dist-packages_django_contrib_sites___init__'
p115
(dp116
g6
(dp117
g8
S'_usr_local_lib_python2_7_dist-packages_django_contrib_sites___init__.html'
p118
sg10
S'/usr/local/lib/python2.7/dist-packages/django/contrib/sites/__init__'
p119
sg12
g13
(g14
g15
NtRp120
(dp121
g18
I1
sg19
I0
sg20
I1
sg21
I0
sg22
I0
sg23
I0
sg24
I0
sbssg25
S'\xc8"\xd2h\'\xe2C\x8b]\x17\x05\xd8?\x153}'
p122
ssS'_usr_local_lib_python2_7_dist-packages_django_utils_html'
p123
(dp124
g6
(dp125
g8
S'_usr_local_lib_python2_7_dist-packages_django_utils_html.html'
p126
sg10
S'/usr/local/lib/python2.7/dist-packages/django/utils/html'
p127
sg12
g13
(g14
g15
NtRp128
(dp129
g18
I1
sg19
I0
sg20
I186
sg21
I0
sg22
I0
sg23
I129
sg24
I0
sbssg25
S'a\x84\xdd-\xe5\xa9@\x9f\xf2\xc6S\x8c\xb9X\xf1\x9a'
p130
ssS'_usr_local_lib_python2_7_dist-packages_django_db_models_sql_compiler'
p131
(dp132
g6
(dp133
g8
S'_usr_local_lib_python2_7_dist-packages_django_db_models_sql_compiler.html'
p134
sg10
S'/usr/local/lib/python2.7/dist-packages/django/db/models/sql/compiler'
p135
sg12
g13
(g14
g15
NtRp136
(dp137
g18
I1
sg19
I0
sg20
I703
sg21
I0
sg22
I0
sg23
I338
sg24
I0
sbssg25
S'gc.\xa8E\xf3U\x9b\x08\x84$\x99r\x9b\xac\xc4'
p138
ssS'_usr_local_lib_python2_7_dist-packages_django_utils_baseconv'
p139
(dp140
g6
(dp141
g8
S'_usr_local_lib_python2_7_dist-packages_django_utils_baseconv.html'
p142
sg10
S'/usr/local/lib/python2.7/dist-packages/django/utils/baseconv'
p143
sg12
g13
(g14
g15
NtRp144
(dp145
g18
I1
sg19
I0
sg20
I48
sg21
I0
sg22
I0
sg23
I25
sg24
I0
sbssg25
S'\xd5\xdfo\x02\x03\xa3\x0eD\xac^h\x99\x8e,E{'
p146
ssS'_usr_local_lib_python2_7_dist-packages_django_core_management___init__'
p147
(dp148
g6
(dp149
g8
S'_usr_local_lib_python2_7_dist-packages_django_core_management___init__.html'
p150
sg10
S'/usr/local/lib/python2.7/dist-packages/django/core/management/__init__'
p151
sg12
g13
(g14
g15
NtRp152
(dp153
g18
I1
sg19
I0
sg20
I173
sg21
I0
sg22
I0
sg23
I79
sg24
I0
sbssg25
S' \xcc\xcd\xf2\xacc\x93\x90\xa5"\xa9b\xe1vO\x7f'
p154
ssS'_usr_local_lib_python2_7_dist-packages_django_db_backends_postgresql_psycopg2_version'
p155
(dp156
g6
(dp157
g8
S'_usr_local_lib_python2_7_dist-packages_django_db_backends_postgresql_psycopg2_version.html'
p158
sg10
S'/usr/local/lib/python2.7/dist-packages/django/db/backends/postgresql_psycopg2/version'
p159
sg12
g13
(g14
g15
NtRp160
(dp161
g18
I1
sg19
I0
sg20
I14
sg21
I0
sg22
I0
sg23
I10
sg24
I0
sbssg25
S'O{7\x05\xe4K4:\xa2\x1aqb\x00e\x86G'
p162
ssS'_usr_local_lib_python2_7_dist-packages_django_db_migrations_autodetector'
p163
(dp164
g6
(dp165
g8
S'_usr_local_lib_python2_7_dist-packages_django_db_migrations_autodetector.html'
p166
sg10
S'/usr/local/lib/python2.7/dist-packages/django/db/migrations/autodetector'
p167
sg12
g13
(g14
g15
NtRp168
(dp169
g18
I1
sg19
I0
sg20
I523
sg21
I0
sg22
I0
sg23
I483
sg24
I0
sbssg25
S'\x02\xa7\xa0\x91\x15\x9e\x06\xd9\xb0.\xa6\xa0\xc0\x12^C'
p170
ssS'_usr_local_lib_python2_7_dist-packages_django_db_models_sql_subqueries'
p171
(dp172
g6
(dp173
g8
S'_usr_local_lib_python2_7_dist-packages_django_db_models_sql_subqueries.html'
p174
sg10
S'/usr/local/lib/python2.7/dist-packages/django/db/models/sql/subqueries'
p175
sg12
g13
(g14
g15
NtRp176
(dp177
g18
I1
sg19
I0
sg20
I143
sg21
I0
sg22
I0
sg23
I85
sg24
I0
sbssg25
S'\x95\x9f\xa3\xfa2\xcb\xf2y \xa3\xac4\xad\xc2\x11\xfd'
p178
ssS'_usr_local_lib_python2_7_dist-packages_django_test_client'
p179
(dp180
g6
(dp181
g8
S'_usr_local_lib_python2_7_dist-packages_django_test_client.html'
p182
sg10
S'/usr/local/lib/python2.7/dist-packages/django/test/client'
p183
sg12
g13
(g14
g15
NtRp184
(dp185
g18
I1
sg19
I0
sg20
I292
sg21
I0
sg22
I0
sg23
I222
sg24
I0
sbssg25
S'j\x1f\x11Z\n\xbd\xb4\xe0U\xea\xc4r$P\xe8\xb6'
p186
ssS'_usr_local_lib_python2_7_dist-packages_django_core_management_base'
p187
(dp188
g6
(dp189
g8
S'_usr_local_lib_python2_7_dist-packages_django_core_management_base.html'
p190
sg10
S'/usr/local/lib/python2.7/dist-packages/django/core/management/base'
p191
sg12
g13
(g14
g15
NtRp192
(dp193
g18
I1
sg19
I0
sg20
I187
sg21
I0
sg22
I0
sg23
I68
sg24
I0
sbssg25
S'\xed\\6\x17\xea\xdc\xb14\x88\x80\xf3\xb3\xec\xdfR\x1e'
p194
ssS'_usr_local_lib_python2_7_dist-packages_django_utils_deprecation'
p195
(dp196
g6
(dp197
g8
S'_usr_local_lib_python2_7_dist-packages_django_utils_deprecation.html'
p198
sg10
S'/usr/local/lib/python2.7/dist-packages/django/utils/deprecation'
p199
sg12
g13
(g14
g15
NtRp200
(dp201
g18
I1
sg19
I0
sg20
I38
sg21
I0
sg22
I0
sg23
I5
sg24
I0
sbssg25
S"P\xfd'\x10\xad;\xf5\xbd>,o\x85\x95\xfd\xfc\xed"
p202
ssS'_usr_local_lib_python2_7_dist-packages_django_core_cache_backends_base'
p203
(dp204
g6
(dp205
g8
S'_usr_local_lib_python2_7_dist-packages_django_core_cache_backends_base.html'
p206
sg10
S'/usr/local/lib/python2.7/dist-packages/django/core/cache/backends/base'
p207
sg12
g13
(g14
g15
NtRp208
(dp209
g18
I1
sg19
I0
sg20
I108
sg21
I0
sg22
I0
sg23
I58
sg24
I0
sbssg25
S'gYi?\xbc$\x06\xb9\xfbz\xf7\xa6&\x11^\xa2'
p210
ssS'_usr_local_lib_python2_7_dist-packages_django_core_signing'
p211
(dp212
g6
(dp213
g8
S'_usr_local_lib_python2_7_dist-packages_django_core_signing.html'
p214
sg10
S'/usr/local/lib/python2.7/dist-packages/django/core/signing'
p215
sg12
g13
(g14
g15
NtRp216
(dp217
g18
I1
sg19
I0
sg20
I87
sg21
I0
sg22
I0
sg23
I55
sg24
I0
sbssg25
S'\xdc)w\xd8\xa7R\xf2\x88g7\xe7&"\r\xe9\xea'
p218
ssS'_usr_local_lib_python2_7_dist-packages_django_contrib_sites_models'
p219
(dp220
g6
(dp221
g8
S'_usr_local_lib_python2_7_dist-packages_django_contrib_sites_models.html'
p222
sg10
S'/usr/local/lib/python2.7/dist-packages/django/contrib/sites/models'
p223
sg12
g13
(g14
g15
NtRp224
(dp225
g18
I1
sg19
I0
sg20
I60
sg21
I0
sg22
I0
sg23
I21
sg24
I0
sbssg25
S'D`\xaf\xe8\xd2\x8f\xfd\x80\x8f\xa8+\xd9n\x00\xf9\xc3'
p226
ssS'_usr_local_lib_python2_7_dist-packages_psycopg2_tz'
p227
(dp228
g6
(dp229
g8
S'_usr_local_lib_python2_7_dist-packages_psycopg2_tz.html'
p230
sg10
S'/usr/local/lib/python2.7/dist-packages/psycopg2/tz'
p231
sg12
g13
(g14
g15
NtRp232
(dp233
g18
I1
sg19
I0
sg20
I61
sg21
I0
sg22
I0
sg23
I37
sg24
I0
sbssg25
S')L)\xac\xa7\xd2l\x88\xc3x\x9fr0Q\xfa\xc9'
p234
ssS'_usr_local_lib_python2_7_dist-packages_django_utils_module_loading'
p235
(dp236
g6
(dp237
g8
S'_usr_local_lib_python2_7_dist-packages_django_utils_module_loading.html'
p238
sg10
S'/usr/local/lib/python2.7/dist-packages/django/utils/module_loading'
p239
sg12
g13
(g14
g15
NtRp240
(dp241
g18
I1
sg19
I0
sg20
I89
sg21
I0
sg22
I0
sg23
I38
sg24
I0
sbssg25
S'X)\x88\xb4B\x9e\xde\x84gV,\xffa\x1e\x95B'
p242
ssS'_usr_local_lib_python2_7_dist-packages_django_contrib_auth_models'
p243
(dp244
g6
(dp245
g8
S'_usr_local_lib_python2_7_dist-packages_django_contrib_auth_models.html'
p246
sg10
S'/usr/local/lib/python2.7/dist-packages/django/contrib/auth/models'
p247
sg12
g13
(g14
g15
NtRp248
(dp249
g18
I1
sg19
I0
sg20
I236
sg21
I0
sg22
I0
sg23
I99
sg24
I0
sbssg25
S'\xa2~\x11\xab\xd0c\x13\x89\x08\xeao\xb8\x86\xd7\x89\xe6'
p250
ssS'_usr_local_lib_python2_7_dist-packages_django_template_smartif'
p251
(dp252
g6
(dp253
g8
S'_usr_local_lib_python2_7_dist-packages_django_template_smartif.html'
p254
sg10
S'/usr/local/lib/python2.7/dist-packages/django/template/smartif'
p255
sg12
g13
(g14
g15
NtRp256
(dp257
g18
I1
sg19
I0
sg20
I104
sg21
I0
sg22
I0
sg23
I61
sg24
I0
sbssg25
S'JWY!\x82\x9c\xd0\x12\xe9\x97\xe7\xf6!\xa3\x13\x14'
p258
ssS'_usr_local_lib_python2_7_dist-packages_django_core_files___init__'
p259
(dp260
g6
(dp261
g8
S'_usr_local_lib_python2_7_dist-packages_django_core_files___init__.html'
p262
sg10
S'/usr/local/lib/python2.7/dist-packages/django/core/files/__init__'
p263
sg12
g13
(g14
g15
NtRp264
(dp265
g18
I1
sg19
I0
sg20
I2
sg21
I0
sg22
I0
sg23
I0
sg24
I0
sbssg25
S'G\xfbz6gu\xc3\x13E\x9f3\xbb\xe0d\xe3`'
p266
ssS'_usr_local_lib_python2_7_dist-packages_django_contrib_sessions___init__'
p267
(dp268
g6
(dp269
g8
S'_usr_local_lib_python2_7_dist-packages_django_contrib_sessions___init__.html'
p270
sg10
S'/usr/local/lib/python2.7/dist-packages/django/contrib/sessions/__init__'
p271
sg12
g13
(g14
g15
NtRp272
(dp273
g18
I1
sg19
I0
sg20
I1
sg21
I0
sg22
I0
sg23
I0
sg24
I0
sbssg25
S'\xdcQHA\xd9\x96\x89w!\xbb\xc1o\xf5\x9e%\xf4'
p274
ssS'_usr_local_lib_python2_7_dist-packages_django_core_mail_utils'
p275
(dp276
g6
(dp277
g8
S'_usr_local_lib_python2_7_dist-packages_django_core_mail_utils.html'
p278
sg10
S'/usr/local/lib/python2.7/dist-packages/django/core/mail/utils'
p279
sg12
g13
(g14
g15
NtRp280
(dp281
g18
I1
sg19
I0
sg20
I9
sg21
I0
sg22
I0
sg23
I4
sg24
I0
sbssg25
S'1;F\xfb\xb1\rUh=1\x8b}\x9c3\xc3\xbf'
p282
ssS'_usr_local_lib_python2_7_dist-packages_django_db_models_aggregates'
p283
(dp284
g6
(dp285
g8
S'_usr_local_lib_python2_7_dist-packages_django_db_models_aggregates.html'
p286
sg10
S'/usr/local/lib/python2.7/dist-packages/django/db/models/aggregates'
p287
sg12
g13
(g14
g15
NtRp288
(dp289
g18
I1
sg19
I0
sg20
I33
sg21
I0
sg22
I0
sg23
I11
sg24
I0
sbssg25
S'\xaf\x92\x0fy\x98wh\x16``\x1f\xb1\xb4\xaaG\xb4'
p290
ssS'_usr_local_lib_python2_7_dist-packages_django_utils_lru_cache'
p291
(dp292
g6
(dp293
g8
S'_usr_local_lib_python2_7_dist-packages_django_utils_lru_cache.html'
p294
sg10
S'/usr/local/lib/python2.7/dist-packages/django/utils/lru_cache'
p295
sg12
g13
(g14
g15
NtRp296
(dp297
g18
I1
sg19
I0
sg20
I106
sg21
I0
sg22
I0
sg23
I44
sg24
I0
sbssg25
S'\xd30\x1cq&\xa3z\xd08\xed\xaeC5p\x9f\xd1'
p298
ssS'_usr_local_lib_python2_7_dist-packages_django_core_files_move'
p299
(dp300
g6
(dp301
g8
S'_usr_local_lib_python2_7_dist-packages_django_core_files_move.html'
p302
sg10
S'/usr/local/lib/python2.7/dist-packages/django/core/files/move'
p303
sg12
g13
(g14
g15
NtRp304
(dp305
g18
I1
sg19
I0
sg20
I47
sg21
I0
sg22
I0
sg23
I40
sg24
I0
sbssg25
S'0\xbb\xaeZ\xe7X\xe5\xdf\xeeB\x95\xa1e\xd3\x0f\xb1'
p306
ssS'_usr_local_lib_python2_7_dist-packages_psycopg2_extensions'
p307
(dp308
g6
(dp309
g8
S'_usr_local_lib_python2_7_dist-packages_psycopg2_extensions.html'
p310
sg10
S'/usr/local/lib/python2.7/dist-packages/psycopg2/extensions'
p311
sg12
g13
(g14
g15
NtRp312
(dp313
g18
I1
sg19
I0
sg20
I91
sg21
I0
sg22
I0
sg23
I24
sg24
I0
sbssg25
S'\xa8\x1dP\xe1Z`.X\xc66\t\x1e7z\xba\x8c'
p314
ssS'_usr_local_lib_python2_7_dist-packages_django_db_models_manager'
p315
(dp316
g6
(dp317
g8
S'_usr_local_lib_python2_7_dist-packages_django_db_models_manager.html'
p318
sg10
S'/usr/local/lib/python2.7/dist-packages/django/db/models/manager'
p319
sg12
g13
(g14
g15
NtRp320
(dp321
g18
I1
sg19
I0
sg20
I137
sg21
I0
sg22
I0
sg23
I18
sg24
I0
sbssg25
S'\x95;2G:o\x1fL\x96\x83F\xc7\x17y}\xc4'
p322
ssS'_usr_local_lib_python2_7_dist-packages_django_middleware___init__'
p323
(dp324
g6
(dp325
g8
S'_usr_local_lib_python2_7_dist-packages_django_middleware___init__.html'
p326
sg10
S'/usr/local/lib/python2.7/dist-packages/django/middleware/__init__'
p327
sg12
g13
(g14
g15
NtRp328
(dp329
g18
I1
sg19
I0
sg20
I0
sg21
I0
sg22
I0
sg23
I0
sg24
I0
sbssg25
S'\xca\xf5\x9f\x7f\x88\xdfa\x831|T\x1d\xbc}\xa5v'
p330
ssS'_usr_local_lib_python2_7_dist-packages_django_forms_models'
p331
(dp332
g6
(dp333
g8
S'_usr_local_lib_python2_7_dist-packages_django_forms_models.html'
p334
sg10
S'/usr/local/lib/python2.7/dist-packages/django/forms/models'
p335
sg12
g13
(g14
g15
NtRp336
(dp337
g18
I1
sg19
I0
sg20
I658
sg21
I0
sg22
I0
sg23
I552
sg24
I0
sbssg25
S'B\xfc=iE\xad\xdb\x1fWM\xfd0\xa8\xfb\x1c\xf6'
p338
ssS'_usr_local_lib_python2_7_dist-packages_django_core_handlers_base'
p339
(dp340
g6
(dp341
g8
S'_usr_local_lib_python2_7_dist-packages_django_core_handlers_base.html'
p342
sg10
S'/usr/local/lib/python2.7/dist-packages/django/core/handlers/base'
p343
sg12
g13
(g14
g15
NtRp344
(dp345
g18
I1
sg19
I0
sg20
I145
sg21
I0
sg22
I0
sg23
I122
sg24
I0
sbssg25
S'\xbe\xb7\x89\x81\xecp\x0c\x8f\x12\xc9MF\xe0I\xaf\x82'
p346
ssS'_usr_local_lib_python2_7_dist-packages_django_core_serializers_base'
p347
(dp348
g6
(dp349
g8
S'_usr_local_lib_python2_7_dist-packages_django_core_serializers_base.html'
p350
sg10
S'/usr/local/lib/python2.7/dist-packages/django/core/serializers/base'
p351
sg12
g13
(g14
g15
NtRp352
(dp353
g18
I1
sg19
I0
sg20
I90
sg21
I0
sg22
I0
sg23
I33
sg24
I0
sbssg25
S'\x05:\xaa\x8f\xf4?\xa3P\x1d\x879H3\xf0\xc0\xe2'
p354
ssS'_usr_local_lib_python2_7_dist-packages_django_contrib_contenttypes_management'
p355
(dp356
g6
(dp357
g8
S'_usr_local_lib_python2_7_dist-packages_django_contrib_contenttypes_management.html'
p358
sg10
S'/usr/local/lib/python2.7/dist-packages/django/contrib/contenttypes/management'
p359
sg12
g13
(g14
g15
NtRp360
(dp361
g18
I1
sg19
I0
sg20
I45
sg21
I0
sg22
I0
sg23
I20
sg24
I0
sbssg25
S'\xf52\x86x\x88\x8e\xcf=\x97\xc0u\x8dJ\x15E\xe2'
p362
ssS'_usr_local_lib_python2_7_dist-packages_django_contrib_messages___init__'
p363
(dp364
g6
(dp365
g8
S'_usr_local_lib_python2_7_dist-packages_django_contrib_messages___init__.html'
p366
sg10
S'/usr/local/lib/python2.7/dist-packages/django/contrib/messages/__init__'
p367
sg12
g13
(g14
g15
NtRp368
(dp369
g18
I1
sg19
I0
sg20
I3
sg21
I0
sg22
I0
sg23
I0
sg24
I0
sbssg25
S'\xbc\xf2\x97i5\x1b\\M\x17\x84a\\p\xe3\xafw'
p370
ssS'_usr_local_lib_python2_7_dist-packages_django_utils_translation_trans_real'
p371
(dp372
g6
(dp373
g8
S'_usr_local_lib_python2_7_dist-packages_django_utils_translation_trans_real.html'
p374
sg10
S'/usr/local/lib/python2.7/dist-packages/django/utils/translation/trans_real'
p375
sg12
g13
(g14
g15
NtRp376
(dp377
g18
I1
sg19
I0
sg20
I432
sg21
I0
sg22
I0
sg23
I288
sg24
I0
sbssg25
S'\xd2\xa2R\xfa\x1dO\x15\xcb\xd5G\x85!ym\xb3\x13'
p378
ssS'_usr_local_lib_python2_7_dist-packages_django_contrib_auth_migrations___init__'
p379
(dp380
g6
(dp381
g8
S'_usr_local_lib_python2_7_dist-packages_django_contrib_auth_migrations___init__.html'
p382
sg10
S'/usr/local/lib/python2.7/dist-packages/django/contrib/auth/migrations/__init__'
p383
sg12
g13
(g14
g15
NtRp384
(dp385
g18
I1
sg19
I0
sg20
I0
sg21
I0
sg22
I0
sg23
I0
sg24
I0
sbssg25
S'\xca\xf5\x9f\x7f\x88\xdfa\x831|T\x1d\xbc}\xa5v'
p386
ssS'_usr_local_lib_python2_7_dist-packages_django_contrib_auth_migrations_0001_initial'
p387
(dp388
g6
(dp389
g8
S'_usr_local_lib_python2_7_dist-packages_django_contrib_auth_migrations_0001_initial.html'
p390
sg10
S'/usr/local/lib/python2.7/dist-packages/django/contrib/auth/migrations/0001_initial'
p391
sg12
g13
(g14
g15
NtRp392
(dp393
g18
I1
sg19
I0
sg20
I7
sg21
I0
sg22
I0
sg23
I0
sg24
I0
sbssg25
S'\xa8J\xc1\x1d&\xe7\xd1\x0f<\xe6q\xdc\x88\x00}\xab'
p394
ssS'_usr_local_lib_python2_7_dist-packages_django_core_management_color'
p395
(dp396
g6
(dp397
g8
S'_usr_local_lib_python2_7_dist-packages_django_core_management_color.html'
p398
sg10
S'/usr/local/lib/python2.7/dist-packages/django/core/management/color'
p399
sg12
g13
(g14
g15
NtRp400
(dp401
g18
I1
sg19
I0
sg20
I30
sg21
I0
sg22
I0
sg23
I3
sg24
I0
sbssg25
S'\x08f\xe9\xe8\x15\x86\xac\x8a\x06\x1e>\x98\x07\x15\x88\xc7'
p402
ssS'_usr_local_lib_python2_7_dist-packages_django_core_exceptions'
p403
(dp404
g6
(dp405
g8
S'_usr_local_lib_python2_7_dist-packages_django_core_exceptions.html'
p406
sg10
S'/usr/local/lib/python2.7/dist-packages/django/core/exceptions'
p407
sg12
g13
(g14
g15
NtRp408
(dp409
g18
I1
sg19
I0
sg20
I85
sg21
I0
sg22
I0
sg23
I45
sg24
I0
sbssg25
S"\xa3\xda`\xbe\xa4\xb4U\xc9\x8d\xb7\x84'\xe37!\xc4"
p410
ssS'_usr_local_lib_python2_7_dist-packages_django_core_serializers_xml_serializer'
p411
(dp412
g6
(dp413
g8
S'_usr_local_lib_python2_7_dist-packages_django_core_serializers_xml_serializer.html'
p414
sg10
S'/usr/local/lib/python2.7/dist-packages/django/core/serializers/xml_serializer'
p415
sg12
g13
(g14
g15
NtRp416
(dp417
g18
I1
sg19
I0
sg20
I212
sg21
I0
sg22
I0
sg23
I165
sg24
I0
sbssg25
S'D\x93\xaf\x0c\x11\xea\x1f\xe3CT\x93T> \xd0\x13'
p418
ssS'_usr_local_lib_python2_7_dist-packages_django_utils_version'
p419
(dp420
g6
(dp421
g8
S'_usr_local_lib_python2_7_dist-packages_django_utils_version.html'
p422
sg10
S'/usr/local/lib/python2.7/dist-packages/django/utils/version'
p423
sg12
g13
(g14
g15
NtRp424
(dp425
g18
I1
sg19
I0
sg20
I29
sg21
I0
sg22
I0
sg23
I15
sg24
I0
sbssg25
S'J-1Z\xb98\x042\xf7\xf3\xbdf\xfcf\x03\xc5'
p426
ssS'_usr_local_lib_python2_7_dist-packages_django_http_cookie'
p427
(dp428
g6
(dp429
g8
S'_usr_local_lib_python2_7_dist-packages_django_http_cookie.html'
p430
sg10
S'/usr/local/lib/python2.7/dist-packages/django/http/cookie'
p431
sg12
g13
(g14
g15
NtRp432
(dp433
g18
I1
sg19
I0
sg20
I55
sg21
I0
sg22
I0
sg23
I37
sg24
I0
sbssg25
S'\xfc`m_\xf1x\xeb\npm\x0c\xf9p\x92\x07y'
p434
ssS'_usr_local_lib_python2_7_dist-packages_django_dispatch___init__'
p435
(dp436
g6
(dp437
g8
S'_usr_local_lib_python2_7_dist-packages_django_dispatch___init__.html'
p438
sg10
S'/usr/local/lib/python2.7/dist-packages/django/dispatch/__init__'
p439
sg12
g13
(g14
g15
NtRp440
(dp441
g18
I1
sg19
I0
sg20
I1
sg21
I0
sg22
I0
sg23
I0
sg24
I0
sbssg25
S'D\x18\xd9\x97? \x11\xf4^{\xf6U\x0e\xef\x7fZ'
p442
ssS'_usr_local_lib_python2_7_dist-packages_django_db_models_sql_datastructures'
p443
(dp444
g6
(dp445
g8
S'_usr_local_lib_python2_7_dist-packages_django_db_models_sql_datastructures.html'
p446
sg10
S'/usr/local/lib/python2.7/dist-packages/django/db/models/sql/datastructures'
p447
sg12
g13
(g14
g15
NtRp448
(dp449
g18
I1
sg19
I0
sg20
I48
sg21
I0
sg22
I0
sg23
I21
sg24
I0
sbssg25
S"K\x1fq\x8al\xafs\x9a\xf3|\xc9\xd2\x88'WZ"
p450
ssS'_usr_local_lib_python2_7_dist-packages_django_db_models_expressions'
p451
(dp452
g6
(dp453
g8
S'_usr_local_lib_python2_7_dist-packages_django_db_models_expressions.html'
p454
sg10
S'/usr/local/lib/python2.7/dist-packages/django/db/models/expressions'
p455
sg12
g13
(g14
g15
NtRp456
(dp457
g18
I1
sg19
I0
sg20
I99
sg21
I0
sg22
I0
sg23
I52
sg24
I0
sbssg25
S'B\xa9\xd04\x85D\xec\xa7s\xfeZ\x85\x82F\x9fO'
p458
ssS'_usr_local_lib_python2_7_dist-packages_django_contrib_staticfiles___init__'
p459
(dp460
g6
(dp461
g8
S'_usr_local_lib_python2_7_dist-packages_django_contrib_staticfiles___init__.html'
p462
sg10
S'/usr/local/lib/python2.7/dist-packages/django/contrib/staticfiles/__init__'
p463
sg12
g13
(g14
g15
NtRp464
(dp465
g18
I1
sg19
I0
sg20
I1
sg21
I0
sg22
I0
sg23
I0
sg24
I0
sbssg25
S'\n\xf5w\xa9q\x7f\x1f\xd1\xd9\x7f\xf5e\xee\xf4\x08\xcb'
p466
ssS'_usr_local_lib_python2_7_dist-packages_psycopg2__json'
p467
(dp468
g6
(dp469
g8
S'_usr_local_lib_python2_7_dist-packages_psycopg2__json.html'
p470
sg10
S'/usr/local/lib/python2.7/dist-packages/psycopg2/_json'
p471
sg12
g13
(g14
g15
NtRp472
(dp473
g18
I1
sg19
I0
sg20
I67
sg21
I0
sg22
I0
sg23
I36
sg24
I0
sbssg25
S']\xe8\x04\xd0O\xb3\x03%C\xa2g\x14\xc0\xa9R\xe0'
p474
ssS'_usr_local_lib_python2_7_dist-packages_django_contrib_sessions_management___init__'
p475
(dp476
g6
(dp477
g8
S'_usr_local_lib_python2_7_dist-packages_django_contrib_sessions_management___init__.html'
p478
sg10
S'/usr/local/lib/python2.7/dist-packages/django/contrib/sessions/management/__init__'
p479
sg12
g13
(g14
g15
NtRp480
(dp481
g18
I1
sg19
I0
sg20
I0
sg21
I0
sg22
I0
sg23
I0
sg24
I0
sbssg25
S'\xca\xf5\x9f\x7f\x88\xdfa\x831|T\x1d\xbc}\xa5v'
p482
ssS'_usr_local_lib_python2_7_dist-packages_django_test_utils'
p483
(dp484
g6
(dp485
g8
S'_usr_local_lib_python2_7_dist-packages_django_test_utils.html'
p486
sg10
S'/usr/local/lib/python2.7/dist-packages/django/test/utils'
p487
sg12
g13
(g14
g15
NtRp488
(dp489
g18
I1
sg19
I0
sg20
I301
sg21
I0
sg22
I0
sg23
I204
sg24
I0
sbssg25
S"m\x9f\xa3\xadL'\xa9;F)\x03\xe7H\x89\xa2W"
p490
ssS'_usr_local_lib_python2_7_dist-packages_django_db_models_base'
p491
(dp492
g6
(dp493
g8
S'_usr_local_lib_python2_7_dist-packages_django_db_models_base.html'
p494
sg10
S'/usr/local/lib/python2.7/dist-packages/django/db/models/base'
p495
sg12
g13
(g14
g15
NtRp496
(dp497
g18
I1
sg19
I0
sg20
I730
sg21
I0
sg22
I0
sg23
I366
sg24
I0
sbssg25
S'\xdd\xf8\x98+\xe1Q\x94\xd5l\xb9va\x96i\x07\xea'
p498
ssS'_usr_local_lib_python2_7_dist-packages_django_core_files_uploadhandler'
p499
(dp500
g6
(dp501
g8
S'_usr_local_lib_python2_7_dist-packages_django_core_files_uploadhandler.html'
p502
sg10
S'/usr/local/lib/python2.7/dist-packages/django/core/files/uploadhandler'
p503
sg12
g13
(g14
g15
NtRp504
(dp505
g18
I1
sg19
I0
sg20
I78
sg21
I0
sg22
I0
sg23
I42
sg24
I0
sbssg25
S'l(p_\x7fk\x90\x0cR\xbe\xc0\xf8\x1d6I\x94'
p506
ssS'_usr_local_lib_python2_7_dist-packages_django_template_loader'
p507
(dp508
g6
(dp509
g8
S'_usr_local_lib_python2_7_dist-packages_django_template_loader.html'
p510
sg10
S'/usr/local/lib/python2.7/dist-packages/django/template/loader'
p511
sg12
g13
(g14
g15
NtRp512
(dp513
g18
I1
sg19
I0
sg20
I95
sg21
I0
sg22
I0
sg23
I72
sg24
I0
sbssg25
S'i\xb0\xf1c\xcd\xbdQ-f7\xb3\xd4\x13\xf5\xe0\xe7'
p514
ssS'_usr_local_lib_python2_7_dist-packages_django_db_models_sql_query'
p515
(dp516
g6
(dp517
g8
S'_usr_local_lib_python2_7_dist-packages_django_db_models_sql_query.html'
p518
sg10
S'/usr/local/lib/python2.7/dist-packages/django/db/models/sql/query'
p519
sg12
g13
(g14
g15
NtRp520
(dp521
g18
I1
sg19
I0
sg20
I1039
sg21
I0
sg22
I0
sg23
I549
sg24
I0
sbssg25
S'X"Uq\xc9\x10\x00\x1bq\xf2\xaa\x8a\x93\x8aZ+'
p522
ssS'_usr_local_lib_python2_7_dist-packages_django_forms_widgets'
p523
(dp524
g6
(dp525
g8
S'_usr_local_lib_python2_7_dist-packages_django_forms_widgets.html'
p526
sg10
S'/usr/local/lib/python2.7/dist-packages/django/forms/widgets'
p527
sg12
g13
(g14
g15
NtRp528
(dp529
g18
I1
sg19
I0
sg20
I508
sg21
I0
sg22
I0
sg23
I320
sg24
I0
sbssg25
S'\xe3\xde>\x96\xd9\x07\x7f\xaec\x07\xe3\xe5\x18\xfd\x82\xed'
p530
ssS'_usr_local_lib_python2_7_dist-packages_django_core_cache_backends___init__'
p531
(dp532
g6
(dp533
g8
S'_usr_local_lib_python2_7_dist-packages_django_core_cache_backends___init__.html'
p534
sg10
S'/usr/local/lib/python2.7/dist-packages/django/core/cache/backends/__init__'
p535
sg12
g13
(g14
g15
NtRp536
(dp537
g18
I1
sg19
I0
sg20
I0
sg21
I0
sg22
I0
sg23
I0
sg24
I0
sbssg25
S'\xca\xf5\x9f\x7f\x88\xdfa\x831|T\x1d\xbc}\xa5v'
p538
ssS'_usr_local_lib_python2_7_dist-packages_django_core_mail___init__'
p539
(dp540
g6
(dp541
g8
S'_usr_local_lib_python2_7_dist-packages_django_core_mail___init__.html'
p542
sg10
S'/usr/local/lib/python2.7/dist-packages/django/core/mail/__init__'
p543
sg12
g13
(g14
g15
NtRp544
(dp545
g18
I1
sg19
I0
sg20
I33
sg21
I0
sg22
I0
sg23
I22
sg24
I0
sbssg25
S'\xe9\xab\x14M=\x19?\x03\xec\xf3\xfa\x8b?\x02~\xd6'
p546
ssS'_usr_local_lib_python2_7_dist-packages_django_db_migrations_operations_fields'
p547
(dp548
g6
(dp549
g8
S'_usr_local_lib_python2_7_dist-packages_django_db_migrations_operations_fields.html'
p550
sg10
S'/usr/local/lib/python2.7/dist-packages/django/db/migrations/operations/fields'
p551
sg12
g13
(g14
g15
NtRp552
(dp553
g18
I1
sg19
I0
sg20
I127
sg21
I0
sg22
I0
sg23
I89
sg24
I0
sbssg25
S'\x03t\xb9\xf0<\xb2\xc3(rKC^\xab\xbf2d'
p554
ssS'_usr_local_lib_python2_7_dist-packages_django_template_base'
p555
(dp556
g6
(dp557
g8
S'_usr_local_lib_python2_7_dist-packages_django_template_base.html'
p558
sg10
S'/usr/local/lib/python2.7/dist-packages/django/template/base'
p559
sg12
g13
(g14
g15
NtRp560
(dp561
g18
I1
sg19
I0
sg20
I786
sg21
I0
sg22
I0
sg23
I579
sg24
I0
sbssg25
S'\xd4\xe7g\x1c\xfe.\x90\xd85\xd4s\xa8\xc8_7\xee'
p562
ssS'_usr_local_lib_python2_7_dist-packages_django_core_management_commands___init__'
p563
(dp564
g6
(dp565
g8
S'_usr_local_lib_python2_7_dist-packages_django_core_management_commands___init__.html'
p566
sg10
S'/usr/local/lib/python2.7/dist-packages/django/core/management/commands/__init__'
p567
sg12
g13
(g14
g15
NtRp568
(dp569
g18
I1
sg19
I0
sg20
I0
sg21
I0
sg22
I0
sg23
I0
sg24
I0
sbssg25
S'\xca\xf5\x9f\x7f\x88\xdfa\x831|T\x1d\xbc}\xa5v'
p570
ssS'_usr_local_lib_python2_7_dist-packages_django_utils_dateformat'
p571
(dp572
g6
(dp573
g8
S'_usr_local_lib_python2_7_dist-packages_django_utils_dateformat.html'
p574
sg10
S'/usr/local/lib/python2.7/dist-packages/django/utils/dateformat'
p575
sg12
g13
(g14
g15
NtRp576
(dp577
g18
I1
sg19
I0
sg20
I184
sg21
I0
sg22
I0
sg23
I124
sg24
I0
sbssg25
S'\xe3\x02\\t\t\xcc\xccv\xe6N\xb3q\x13\x8f\xa8\xcc'
p578
ssS'_usr_local_lib_python2_7_dist-packages_django_contrib_sessions_migrations___init__'
p579
(dp580
g6
(dp581
g8
S'_usr_local_lib_python2_7_dist-packages_django_contrib_sessions_migrations___init__.html'
p582
sg10
S'/usr/local/lib/python2.7/dist-packages/django/contrib/sessions/migrations/__init__'
p583
sg12
g13
(g14
g15
NtRp584
(dp585
g18
I1
sg19
I0
sg20
I0
sg21
I0
sg22
I0
sg23
I0
sg24
I0
sbssg25
S'\xca\xf5\x9f\x7f\x88\xdfa\x831|T\x1d\xbc}\xa5v'
p586
ssS'_usr_local_lib_python2_7_dist-packages_django_db_transaction'
p587
(dp588
g6
(dp589
g8
S'_usr_local_lib_python2_7_dist-packages_django_db_transaction.html'
p590
sg10
S'/usr/local/lib/python2.7/dist-packages/django/db/transaction'
p591
sg12
g13
(g14
g15
NtRp592
(dp593
g18
I1
sg19
I0
sg20
I207
sg21
I0
sg22
I0
sg23
I123
sg24
I0
sbssg25
S'\x97\x1d\xdbIx\xfa\xf4\x9e \x81\x1f\x06\x12GQ\xec'
p594
ssS'_usr_local_lib_python2_7_dist-packages_django_conf_global_settings'
p595
(dp596
g6
(dp597
g8
S'_usr_local_lib_python2_7_dist-packages_django_conf_global_settings.html'
p598
sg10
S'/usr/local/lib/python2.7/dist-packages/django/conf/global_settings'
p599
sg12
g13
(g14
g15
NtRp600
(dp601
g18
I1
sg19
I0
sg20
I130
sg21
I0
sg22
I0
sg23
I0
sg24
I0
sbssg25
S'M\x9e\x92\xfe\x88\xe8sP\x0e\x98\xea\xc7Bkq\x7f'
p602
ssS'_usr_local_lib_python2_7_dist-packages_django_views_debug'
p603
(dp604
g6
(dp605
g8
S'_usr_local_lib_python2_7_dist-packages_django_views_debug.html'
p606
sg10
S'/usr/local/lib/python2.7/dist-packages/django/views/debug'
p607
sg12
g13
(g14
g15
NtRp608
(dp609
g18
I1
sg19
I0
sg20
I302
sg21
I0
sg22
I0
sg23
I250
sg24
I0
sbssg25
S':\xbb\xbc\xbdp[}\x95\xd9&\xaf\x8f\x8c\x8b\xb0\xc1'
p610
ssS'_usr_local_lib_python2_7_dist-packages_django_core_management_commands_dumpdata'
p611
(dp612
g6
(dp613
g8
S'_usr_local_lib_python2_7_dist-packages_django_core_management_commands_dumpdata.html'
p614
sg10
S'/usr/local/lib/python2.7/dist-packages/django/core/management/commands/dumpdata'
p615
sg12
g13
(g14
g15
NtRp616
(dp617
g18
I1
sg19
I0
sg20
I145
sg21
I0
sg22
I0
sg23
I91
sg24
I0
sbssg25
S'K<\x1a \xbbtZ(\x19\xa1\x05\x12\xe9c\xd7\x95'
p618
ssS'_usr_local_lib_python2_7_dist-packages_django_contrib_contenttypes_migrations___init__'
p619
(dp620
g6
(dp621
g8
S'_usr_local_lib_python2_7_dist-packages_django_contrib_contenttypes_migrations___init__.html'
p622
sg10
S'/usr/local/lib/python2.7/dist-packages/django/contrib/contenttypes/migrations/__init__'
p623
sg12
g13
(g14
g15
NtRp624
(dp625
g18
I1
sg19
I0
sg20
I0
sg21
I0
sg22
I0
sg23
I0
sg24
I0
sbssg25
S'\xca\xf5\x9f\x7f\x88\xdfa\x831|T\x1d\xbc}\xa5v'
p626
ssS'_usr_local_lib_python2_7_dist-packages_django_core_wsgi'
p627
(dp628
g6
(dp629
g8
S'_usr_local_lib_python2_7_dist-packages_django_core_wsgi.html'
p630
sg10
S'/usr/local/lib/python2.7/dist-packages/django/core/wsgi'
p631
sg12
g13
(g14
g15
NtRp632
(dp633
g18
I1
sg19
I0
sg20
I5
sg21
I0
sg22
I0
sg23
I2
sg24
I0
sbssg25
S'\xcb\xa3\x0c\x90\xbe|\xe5}\x13v\x9f[m\xed\x86\xda'
p634
ssS'_usr_local_lib_python2_7_dist-packages_django_contrib_sites_migrations_0001_initial'
p635
(dp636
g6
(dp637
g8
S'_usr_local_lib_python2_7_dist-packages_django_contrib_sites_migrations_0001_initial.html'
p638
sg10
S'/usr/local/lib/python2.7/dist-packages/django/contrib/sites/migrations/0001_initial'
p639
sg12
g13
(g14
g15
NtRp640
(dp641
g18
I1
sg19
I0
sg20
I6
sg21
I0
sg22
I0
sg23
I0
sg24
I0
sbssg25
S'\x9bRvz\x95\\Bz\xdd\xdf\xa4\xd9\x90B\xf3\xcb'
p642
ssS'_usr_local_lib_python2_7_dist-packages_django_utils_decorators'
p643
(dp644
g6
(dp645
g8
S'_usr_local_lib_python2_7_dist-packages_django_utils_decorators.html'
p646
sg10
S'/usr/local/lib/python2.7/dist-packages/django/utils/decorators'
p647
sg12
g13
(g14
g15
NtRp648
(dp649
g18
I1
sg19
I0
sg20
I64
sg21
I0
sg22
I0
sg23
I55
sg24
I0
sbssg25
S'U\xa0\xb4\x92[\xbf\xf2\x11/\x9fA\x00\xcf\xb5\xc2\xde'
p650
ssS'_usr_local_lib_python2_7_dist-packages_django_dispatch_weakref_backports'
p651
(dp652
g6
(dp653
g8
S'_usr_local_lib_python2_7_dist-packages_django_dispatch_weakref_backports.html'
p654
sg10
S'/usr/local/lib/python2.7/dist-packages/django/dispatch/weakref_backports'
p655
sg12
g13
(g14
g15
NtRp656
(dp657
g18
I1
sg19
I0
sg20
I40
sg21
I0
sg22
I0
sg23
I18
sg24
I0
sbssg25
S'\xbd\xf3\x1a\x81A\xe9\xf5\xc0\x1e\x17\xa2a\x00\x8an\xc3'
p658
ssS'_usr_local_lib_python2_7_dist-packages_django_template_defaultfilters'
p659
(dp660
g6
(dp661
g8
S'_usr_local_lib_python2_7_dist-packages_django_template_defaultfilters.html'
p662
sg10
S'/usr/local/lib/python2.7/dist-packages/django/template/defaultfilters'
p663
sg12
g13
(g14
g15
NtRp664
(dp665
g18
I1
sg19
I0
sg20
I459
sg21
I0
sg22
I0
sg23
I327
sg24
I0
sbssg25
S'\x9b\xea\x0bs\xe3\x1d\x04\xef\xdb\x96#\x9fa\xea*N'
p666
ssS'_usr_local_lib_python2_7_dist-packages_django_core_checks_messages'
p667
(dp668
g6
(dp669
g8
S'_usr_local_lib_python2_7_dist-packages_django_core_checks_messages.html'
p670
sg10
S'/usr/local/lib/python2.7/dist-packages/django/core/checks/messages'
p671
sg12
g13
(g14
g15
NtRp672
(dp673
g18
I1
sg19
I0
sg20
I54
sg21
I0
sg22
I0
sg23
I12
sg24
I0
sbssg25
S'\x93NQ\x91r\x8b\xd1\x89d\xd9]\xe8\x85\x8b\x8a\xfc'
p674
ssS'_usr_local_lib_python2_7_dist-packages_django_db_migrations_operations_special'
p675
(dp676
g6
(dp677
g8
S'_usr_local_lib_python2_7_dist-packages_django_db_migrations_operations_special.html'
p678
sg10
S'/usr/local/lib/python2.7/dist-packages/django/db/migrations/operations/special'
p679
sg12
g13
(g14
g15
NtRp680
(dp681
g18
I1
sg19
I0
sg20
I72
sg21
I0
sg22
I0
sg23
I49
sg24
I0
sbssg25
S'\xf3J\xc3\xa9\xd9\xc2d\xbdCK\xef\xcen9g8'
p682
ssS'_usr_local_lib_python2_7_dist-packages_django_core_files_base'
p683
(dp684
g6
(dp685
g8
S'_usr_local_lib_python2_7_dist-packages_django_core_files_base.html'
p686
sg10
S'/usr/local/lib/python2.7/dist-packages/django/core/files/base'
p687
sg12
g13
(g14
g15
NtRp688
(dp689
g18
I1
sg19
I0
sg20
I106
sg21
I0
sg22
I0
sg23
I70
sg24
I0
sbssg25
S'\xf2\x00\xfe\xda\x8e\x1e\xaa\xf8\xc1\xf3s\xfa\xb6\x07.\x8a'
p690
ssS'_usr_local_lib_python2_7_dist-packages_django_conf___init__'
p691
(dp692
g6
(dp693
g8
S'_usr_local_lib_python2_7_dist-packages_django_conf___init__.html'
p694
sg10
S'/usr/local/lib/python2.7/dist-packages/django/conf/__init__'
p695
sg12
g13
(g14
g15
NtRp696
(dp697
g18
I1
sg19
I0
sg20
I88
sg21
I0
sg22
I0
sg23
I30
sg24
I0
sbssg25
S'\xe5\xbd\xe0\xd5U\xec\xc3\x00/q\xc1%]y\xaa\x90'
p698
ssS'_usr_local_lib_python2_7_dist-packages_django_contrib_sites_requests'
p699
(dp700
g6
(dp701
g8
S'_usr_local_lib_python2_7_dist-packages_django_contrib_sites_requests.html'
p702
sg10
S'/usr/local/lib/python2.7/dist-packages/django/contrib/sites/requests'
p703
sg12
g13
(g14
g15
NtRp704
(dp705
g18
I1
sg19
I0
sg20
I12
sg21
I0
sg22
I0
sg23
I4
sg24
I0
sbssg25
S'\x82\t\xca\x19\xff`,\xd2-\x83-\x87\xed\xac\xefi'
p706
ssS'_usr_local_lib_python2_7_dist-packages_django_test_html'
p707
(dp708
g6
(dp709
g8
S'_usr_local_lib_python2_7_dist-packages_django_test_html.html'
p710
sg10
S'/usr/local/lib/python2.7/dist-packages/django/test/html'
p711
sg12
g13
(g14
g15
NtRp712
(dp713
g18
I1
sg19
I0
sg20
I167
sg21
I0
sg22
I0
sg23
I128
sg24
I0
sbssg25
S'\xc1wD\x836\xc5uF\x9a\xd0\x7f\x9c\xe1\xbe\x8em'
p714
ssS'_usr_local_lib_python2_7_dist-packages_django_utils_numberformat'
p715
(dp716
g6
(dp717
g8
S'_usr_local_lib_python2_7_dist-packages_django_utils_numberformat.html'
p718
sg10
S'/usr/local/lib/python2.7/dist-packages/django/utils/numberformat'
p719
sg12
g13
(g14
g15
NtRp720
(dp721
g18
I1
sg19
I0
sg20
I31
sg21
I0
sg22
I0
sg23
I27
sg24
I0
sbssg25
S'\xac_\xe7\xd6\xec"\xf9\xd4B\x8c<\xe2\xd4\xc7[\x8c'
p722
ssS'_usr_local_lib_python2_7_dist-packages_django_utils_timezone'
p723
(dp724
g6
(dp725
g8
S'_usr_local_lib_python2_7_dist-packages_django_utils_timezone.html'
p726
sg10
S'/usr/local/lib/python2.7/dist-packages/django/utils/timezone'
p727
sg12
g13
(g14
g15
NtRp728
(dp729
g18
I1
sg19
I0
sg20
I145
sg21
I0
sg22
I0
sg23
I88
sg24
I0
sbssg25
S'/\x8f\xc1\xed\x85I\x96\x83/\xc89\x16\xfa\xa0\xc7\xec'
p730
ssS'_usr_local_lib_python2_7_dist-packages_django_utils_safestring'
p731
(dp732
g6
(dp733
g8
S'_usr_local_lib_python2_7_dist-packages_django_utils_safestring.html'
p734
sg10
S'/usr/local/lib/python2.7/dist-packages/django/utils/safestring'
p735
sg12
g13
(g14
g15
NtRp736
(dp737
g18
I1
sg19
I0
sg20
I63
sg21
I0
sg22
I0
sg23
I37
sg24
I0
sbssg25
S'ho\xe0/b\x85F\x00\xe3_\xdb-\x10\xa2\x1a\xdd'
p738
ssS'_usr_local_lib_python2_7_dist-packages_django_db_backends_postgresql_psycopg2_schema'
p739
(dp740
g6
(dp741
g8
S'_usr_local_lib_python2_7_dist-packages_django_db_backends_postgresql_psycopg2_schema.html'
p742
sg10
S'/usr/local/lib/python2.7/dist-packages/django/db/backends/postgresql_psycopg2/schema'
p743
sg12
g13
(g14
g15
NtRp744
(dp745
g18
I1
sg19
I0
sg20
I13
sg21
I0
sg22
I0
sg23
I6
sg24
I0
sbssg25
S'\x81\x8e\xbf\x14\xfe\x82\x8d\xa4\xa8\xf6q\x8ax\xbc\xe22'
p746
ssS'_usr_local_lib_python2_7_dist-packages_django_http_utils'
p747
(dp748
g6
(dp749
g8
S'_usr_local_lib_python2_7_dist-packages_django_http_utils.html'
p750
sg10
S'/usr/local/lib/python2.7/dist-packages/django/http/utils'
p751
sg12
g13
(g14
g15
NtRp752
(dp753
g18
I1
sg19
I0
sg20
I15
sg21
I0
sg22
I0
sg23
I13
sg24
I0
sbssg25
S'%$\x0b\xcc\x12\xddg\xd0km\xa8\x91\x9b7g\xa4'
p754
ssS'_usr_local_lib_python2_7_dist-packages_django_core_servers_basehttp'
p755
(dp756
g6
(dp757
g8
S'_usr_local_lib_python2_7_dist-packages_django_core_servers_basehttp.html'
p758
sg10
S'/usr/local/lib/python2.7/dist-packages/django/core/servers/basehttp'
p759
sg12
g13
(g14
g15
NtRp760
(dp761
g18
I1
sg19
I0
sg20
I88
sg21
I0
sg22
I0
sg23
I58
sg24
I0
sbssg25
S'\x02\xa0,\x15vA$\xf8_\xe4\x86\x0cp\x9dw\x98'
p762
ssS'_usr_local_lib_python2_7_dist-packages_django_utils_functional'
p763
(dp764
g6
(dp765
g8
S'_usr_local_lib_python2_7_dist-packages_django_utils_functional.html'
p766
sg10
S'/usr/local/lib/python2.7/dist-packages/django/utils/functional'
p767
sg12
g13
(g14
g15
NtRp768
(dp769
g18
I1
sg19
I0
sg20
I232
sg21
I0
sg22
I0
sg23
I112
sg24
I0
sbssg25
S'&\t\xaf\x9b\xb5\xd6\xe7X\x15c\xed\xc1\x8c\xd6\xee\x17'
p770
ssS'_usr_local_lib_python2_7_dist-packages_django_db_migrations_graph'
p771
(dp772
g6
(dp773
g8
S'_usr_local_lib_python2_7_dist-packages_django_db_migrations_graph.html'
p774
sg10
S'/usr/local/lib/python2.7/dist-packages/django/db/migrations/graph'
p775
sg12
g13
(g14
g15
NtRp776
(dp777
g18
I1
sg19
I0
sg20
I77
sg21
I0
sg22
I0
sg23
I8
sg24
I0
sbssg25
S'z8\x94\xf8\x1e\xfc\x14\xc8\xc9p\x88n~8+\x8c'
p778
ssS'_usr_local_lib_python2_7_dist-packages_django_template_context'
p779
(dp780
g6
(dp781
g8
S'_usr_local_lib_python2_7_dist-packages_django_template_context.html'
p782
sg10
S'/usr/local/lib/python2.7/dist-packages/django/template/context'
p783
sg12
g13
(g14
g15
NtRp784
(dp785
g18
I1
sg19
I0
sg20
I121
sg21
I0
sg22
I0
sg23
I82
sg24
I0
sbssg25
S'\xd1=*\\aCx\x0bl)\xeb\x94\xb8\x0e\xf5*'
p786
ssS'_usr_local_lib_python2_7_dist-packages_django_db_models_sql_expressions'
p787
(dp788
g6
(dp789
g8
S'_usr_local_lib_python2_7_dist-packages_django_db_models_sql_expressions.html'
p790
sg10
S'/usr/local/lib/python2.7/dist-packages/django/db/models/sql/expressions'
p791
sg12
g13
(g14
g15
NtRp792
(dp793
g18
I1
sg19
I0
sg20
I83
sg21
I0
sg22
I0
sg23
I68
sg24
I0
sbssg25
S' \xd3\x01\x8a\x81\xb16\xf9\xca1-\xa9\x10FV\x8f'
p794
ssS'_usr_local_lib_python2_7_dist-packages_django_core_files_locks'
p795
(dp796
g6
(dp797
g8
S'_usr_local_lib_python2_7_dist-packages_django_core_files_locks.html'
p798
sg10
S'/usr/local/lib/python2.7/dist-packages/django/core/files/locks'
p799
sg12
g13
(g14
g15
NtRp800
(dp801
g18
I1
sg19
I0
sg20
I57
sg21
I0
sg22
I0
sg23
I46
sg24
I0
sbssg25
S';4F\xa2\x0bH\xcbk>\x84\x93\x9f\x0f3\xb1\xc5'
p802
ssS'_usr_local_lib_python2_7_dist-packages_django_db_backends_postgresql_psycopg2_base'
p803
(dp804
g6
(dp805
g8
S'_usr_local_lib_python2_7_dist-packages_django_db_backends_postgresql_psycopg2_base.html'
p806
sg10
S'/usr/local/lib/python2.7/dist-packages/django/db/backends/postgresql_psycopg2/base'
p807
sg12
g13
(g14
g15
NtRp808
(dp809
g18
I1
sg19
I0
sg20
I139
sg21
I0
sg22
I0
sg23
I30
sg24
I0
sbssg25
S'\xde\xca\xf6\xe5\\\xe8\\\xa3:\n\xbb\x80\xd3\xadq\xc1'
p810
ssS'_usr_local_lib_python2_7_dist-packages_django_contrib_auth___init__'
p811
(dp812
g6
(dp813
g8
S'_usr_local_lib_python2_7_dist-packages_django_contrib_auth___init__.html'
p814
sg10
S'/usr/local/lib/python2.7/dist-packages/django/contrib/auth/__init__'
p815
sg12
g13
(g14
g15
NtRp816
(dp817
g18
I1
sg19
I0
sg20
I98
sg21
I0
sg22
I0
sg23
I73
sg24
I0
sbssg25
S'\xf7\x19b\xd5=\x91H\xcfN4\x8c\xbf\xce\xe0|\xa9'
p818
ssS'_usr_local_lib_python2_7_dist-packages_django_contrib_sessions_migrations_0001_initial'
p819
(dp820
g6
(dp821
g8
S'_usr_local_lib_python2_7_dist-packages_django_contrib_sessions_migrations_0001_initial.html'
p822
sg10
S'/usr/local/lib/python2.7/dist-packages/django/contrib/sessions/migrations/0001_initial'
p823
sg12
g13
(g14
g15
NtRp824
(dp825
g18
I1
sg19
I0
sg20
I5
sg21
I0
sg22
I0
sg23
I0
sg24
I0
sbssg25
S'\x10\n\xc7|\xbbZ\xf3*s%\x91\x7f\xa7\xc4n\xb8'
p826
ssS'_usr_local_lib_python2_7_dist-packages_django_utils_tree'
p827
(dp828
g6
(dp829
g8
S'_usr_local_lib_python2_7_dist-packages_django_utils_tree.html'
p830
sg10
S'/usr/local/lib/python2.7/dist-packages/django/utils/tree'
p831
sg12
g13
(g14
g15
NtRp832
(dp833
g18
I1
sg19
I0
sg20
I50
sg21
I0
sg22
I0
sg23
I20
sg24
I0
sbssg25
S'\x93\xad\x88\xceo\x86\xcb>\xc1\xf8\xc4\xbd\xe4\x0b\xf2\x16'
p834
ssS'_usr_local_lib_python2_7_dist-packages_django_utils___init__'
p835
(dp836
g6
(dp837
g8
S'_usr_local_lib_python2_7_dist-packages_django_utils___init__.html'
p838
sg10
S'/usr/local/lib/python2.7/dist-packages/django/utils/__init__'
p839
sg12
g13
(g14
g15
NtRp840
(dp841
g18
I1
sg19
I0
sg20
I0
sg21
I0
sg22
I0
sg23
I0
sg24
I0
sbssg25
S'\xca\xf5\x9f\x7f\x88\xdfa\x831|T\x1d\xbc}\xa5v'
p842
ssS'_usr_local_lib_python2_7_dist-packages_django_core_management_sql'
p843
(dp844
g6
(dp845
g8
S'_usr_local_lib_python2_7_dist-packages_django_core_management_sql.html'
p846
sg10
S'/usr/local/lib/python2.7/dist-packages/django/core/management/sql'
p847
sg12
g13
(g14
g15
NtRp848
(dp849
g18
I1
sg19
I0
sg20
I152
sg21
I0
sg22
I0
sg23
I97
sg24
I0
sbssg25
S'\xf6\x01\xd5\xc6\xf8\xd6\x83\xa7\x04\x97\x1d\x99&\xc762'
p850
ssS'_usr_local_lib_python2_7_dist-packages_django_core_management_commands_migrate'
p851
(dp852
g6
(dp853
g8
S'_usr_local_lib_python2_7_dist-packages_django_core_management_commands_migrate.html'
p854
sg10
S'/usr/local/lib/python2.7/dist-packages/django/core/management/commands/migrate'
p855
sg12
g13
(g14
g15
NtRp856
(dp857
g18
I1
sg19
I0
sg20
I213
sg21
I0
sg22
I0
sg23
I83
sg24
I0
sbssg25
S'\xa2\t\x8c5\xe0\xaa\xd12-w\x8b3PI\x0e1'
p858
ssS'_usr_local_lib_python2_7_dist-packages_django_template_loaders___init__'
p859
(dp860
g6
(dp861
g8
S'_usr_local_lib_python2_7_dist-packages_django_template_loaders___init__.html'
p862
sg10
S'/usr/local/lib/python2.7/dist-packages/django/template/loaders/__init__'
p863
sg12
g13
(g14
g15
NtRp864
(dp865
g18
I1
sg19
I0
sg20
I0
sg21
I0
sg22
I0
sg23
I0
sg24
I0
sbssg25
S'\xca\xf5\x9f\x7f\x88\xdfa\x831|T\x1d\xbc}\xa5v'
p866
ssS'_usr_local_lib_python2_7_dist-packages_django_contrib_contenttypes_migrations_0001_initial'
p867
(dp868
g6
(dp869
g8
S'_usr_local_lib_python2_7_dist-packages_django_contrib_contenttypes_migrations_0001_initial.html'
p870
sg10
S'/usr/local/lib/python2.7/dist-packages/django/contrib/contenttypes/migrations/0001_initial'
p871
sg12
g13
(g14
g15
NtRp872
(dp873
g18
I1
sg19
I0
sg20
I5
sg21
I0
sg22
I0
sg23
I0
sg24
I0
sbssg25
S'hY9\xebs\xee\x9c\xe0\xed\x1f\xd4\xecD\x1d\x8b\xd8'
p874
ssS'_usr_local_lib_python2_7_dist-packages_django_core_checks___init__'
p875
(dp876
g6
(dp877
g8
S'_usr_local_lib_python2_7_dist-packages_django_core_checks___init__.html'
p878
sg10
S'/usr/local/lib/python2.7/dist-packages/django/core/checks/__init__'
p879
sg12
g13
(g14
g15
NtRp880
(dp881
g18
I1
sg19
I0
sg20
I7
sg21
I0
sg22
I0
sg23
I0
sg24
I0
sbssg25
S'X\xb2\r|\x19\x80\x9d\x00H\xa3\x06n\x8a\xa6\x90\xa1'
p882
ssS'_usr_local_lib_python2_7_dist-packages_django_core_files_images'
p883
(dp884
g6
(dp885
g8
S'_usr_local_lib_python2_7_dist-packages_django_core_files_images.html'
p886
sg10
S'/usr/local/lib/python2.7/dist-packages/django/core/files/images'
p887
sg12
g13
(g14
g15
NtRp888
(dp889
g18
I1
sg19
I0
sg20
I43
sg21
I0
sg22
I0
sg23
I34
sg24
I0
sbssg25
S'\x96\xd4\x1d\xee\xbb\x9b]\x87\x8d\xc7\x96\x0cy\xb3\x13\xf7'
p890
ssS'_usr_local_lib_python2_7_dist-packages_django_db_utils'
p891
(dp892
g6
(dp893
g8
S'_usr_local_lib_python2_7_dist-packages_django_db_utils.html'
p894
sg10
S'/usr/local/lib/python2.7/dist-packages/django/db/utils'
p895
sg12
g13
(g14
g15
NtRp896
(dp897
g18
I1
sg19
I0
sg20
I204
sg21
I0
sg22
I0
sg23
I73
sg24
I0
sbssg25
S'p\xefv\x98,\x90\x16\xeb\xfao.\xd1\x7f\x99{\xc6'
p898
ssS'_usr_local_lib_python2_7_dist-packages_django_core_checks_compatibility_django_1_7_0'
p899
(dp900
g6
(dp901
g8
S'_usr_local_lib_python2_7_dist-packages_django_core_checks_compatibility_django_1_7_0.html'
p902
sg10
S'/usr/local/lib/python2.7/dist-packages/django/core/checks/compatibility/django_1_7_0'
p903
sg12
g13
(g14
g15
NtRp904
(dp905
g18
I1
sg19
I0
sg20
I11
sg21
I0
sg22
I0
sg23
I1
sg24
I0
sbssg25
S's\xa36\x93\xe9\x82\xe3\xfbcAm\xe9j\x1e\xcc\xfd'
p906
ssS'_usr_local_lib_python2_7_dist-packages_django_test_runner'
p907
(dp908
g6
(dp909
g8
S'_usr_local_lib_python2_7_dist-packages_django_test_runner.html'
p910
sg10
S'/usr/local/lib/python2.7/dist-packages/django/test/runner'
p911
sg12
g13
(g14
g15
NtRp912
(dp913
g18
I1
sg19
I0
sg20
I163
sg21
I0
sg22
I0
sg23
I21
sg24
I0
sbssg25
S'\xbcT%\xf3z\xb7=\x13\xce4y\xef\xdd\xa8\xd7_'
p914
ssS'_usr_local_lib_python2_7_dist-packages_django_core_mail_message'
p915
(dp916
g6
(dp917
g8
S'_usr_local_lib_python2_7_dist-packages_django_core_mail_message.html'
p918
sg10
S'/usr/local/lib/python2.7/dist-packages/django/core/mail/message'
p919
sg12
g13
(g14
g15
NtRp920
(dp921
g18
I1
sg19
I0
sg20
I242
sg21
I0
sg22
I0
sg23
I182
sg24
I0
sbssg25
S'\xe4\x0b\x94\xf3\xe2\xb6\xf7(\xba;\x8a\x81[\xd9y\xa9'
p922
ssS'_usr_local_lib_python2_7_dist-packages_django_utils_termcolors'
p923
(dp924
g6
(dp925
g8
S'_usr_local_lib_python2_7_dist-packages_django_utils_termcolors.html'
p926
sg10
S'/usr/local/lib/python2.7/dist-packages/django/utils/termcolors'
p927
sg12
g13
(g14
g15
NtRp928
(dp929
g18
I1
sg19
I0
sg20
I57
sg21
I0
sg22
I0
sg23
I29
sg24
I0
sbssg25
S'$\xc93T\xd0\xaff;\x19\x98u\x1c\xae{\xad\x8a'
p930
ssS'_usr_local_lib_python2_7_dist-packages_django_apps_config'
p931
(dp932
g6
(dp933
g8
S'_usr_local_lib_python2_7_dist-packages_django_apps_config.html'
p934
sg10
S'/usr/local/lib/python2.7/dist-packages/django/apps/config'
p935
sg12
g13
(g14
g15
NtRp936
(dp937
g18
I1
sg19
I0
sg20
I84
sg21
I0
sg22
I0
sg23
I23
sg24
I0
sbssg25
S'\xa5}\xd0\xbcI|\xc2\xf4^\x8b\xcb#X\xf2\xd7\xea'
p938
ssS'_usr_local_lib_python2_7_dist-packages_django_db_models_sql_constants'
p939
(dp940
g6
(dp941
g8
S'_usr_local_lib_python2_7_dist-packages_django_db_models_sql_constants.html'
p942
sg10
S'/usr/local/lib/python2.7/dist-packages/django/db/models/sql/constants'
p943
sg12
g13
(g14
g15
NtRp944
(dp945
g18
I1
sg19
I0
sg20
I12
sg21
I0
sg22
I0
sg23
I0
sg24
I0
sbssg25
S'\xd9\xa0\x04%}\xdd\x7f\xdaP\xfe\xce(\x8f\x8d\x9c|'
p946
ssS'_usr_local_lib_python2_7_dist-packages_django_utils_dateparse'
p947
(dp948
g6
(dp949
g8
S'_usr_local_lib_python2_7_dist-packages_django_utils_dateparse.html'
p950
sg10
S'/usr/local/lib/python2.7/dist-packages/django/utils/dateparse'
p951
sg12
g13
(g14
g15
NtRp952
(dp953
g18
I1
sg19
I0
sg20
I38
sg21
I0
sg22
I0
sg23
I28
sg24
I0
sbssg25
S'3Z\x0e,(\xf8\xb8\xad0\xdd^\t\xfa\x0e\xa4\x87'
p954
ssS'_usr_local_lib_python2_7_dist-packages_django_db_backends_schema'
p955
(dp956
g6
(dp957
g8
S'_usr_local_lib_python2_7_dist-packages_django_db_backends_schema.html'
p958
sg10
S'/usr/local/lib/python2.7/dist-packages/django/db/backends/schema'
p959
sg12
g13
(g14
g15
NtRp960
(dp961
g18
I1
sg19
I0
sg20
I387
sg21
I0
sg22
I0
sg23
I219
sg24
I0
sbssg25
S'\xb6\x01@Q\xca+\x83\xb7\x13*\x94\x1c;KF\xce'
p962
ssS'_usr_local_lib_python2_7_dist-packages_django_dispatch_dispatcher'
p963
(dp964
g6
(dp965
g8
S'_usr_local_lib_python2_7_dist-packages_django_dispatch_dispatcher.html'
p966
sg10
S'/usr/local/lib/python2.7/dist-packages/django/dispatch/dispatcher'
p967
sg12
g13
(g14
g15
NtRp968
(dp969
g18
I1
sg19
I0
sg20
I135
sg21
I0
sg22
I0
sg23
I43
sg24
I0
sbssg25
S'\xad\xedC\xc1\x02\xcf\xaf\x9fj\xd9\x85\xd4\xa6\xaf\xb7i'
p970
ssS'_usr_local_lib_python2_7_dist-packages_django_core_management_commands_loaddata'
p971
(dp972
g6
(dp973
g8
S'_usr_local_lib_python2_7_dist-packages_django_core_management_commands_loaddata.html'
p974
sg10
S'/usr/local/lib/python2.7/dist-packages/django/core/management/commands/loaddata'
p975
sg12
g13
(g14
g15
NtRp976
(dp977
g18
I1
sg19
I0
sg20
I173
sg21
I0
sg22
I0
sg23
I68
sg24
I0
sbssg25
S'%\xc1\xcd\xb9"\xb1=\x91\xfc\x1d4u\xbf\'M\x07'
p978
ssS'_usr_local_lib_python2_7_dist-packages_django_utils_crypto'
p979
(dp980
g6
(dp981
g8
S'_usr_local_lib_python2_7_dist-packages_django_utils_crypto.html'
p982
sg10
S'/usr/local/lib/python2.7/dist-packages/django/utils/crypto'
p983
sg12
g13
(g14
g15
NtRp984
(dp985
g18
I1
sg19
I0
sg20
I75
sg21
I0
sg22
I0
sg23
I55
sg24
I0
sbssg25
S'\xc3\x00\xfeG)|#\xfc\xa0=\x8bB\xab?,$'
p986
ssS'_usr_local_lib_python2_7_dist-packages_django_db_models_deletion'
p987
(dp988
g6
(dp989
g8
S'_usr_local_lib_python2_7_dist-packages_django_db_models_deletion.html'
p990
sg10
S'/usr/local/lib/python2.7/dist-packages/django/db/models/deletion'
p991
sg12
g13
(g14
g15
NtRp992
(dp993
g18
I1
sg19
I0
sg20
I154
sg21
I0
sg22
I0
sg23
I131
sg24
I0
sbssg25
S'\xc6[\xbfV\xec#\x1a2\xf6`\xce)\xa7\x8b\xcb\xac'
p994
ssS'_usr_local_lib_python2_7_dist-packages_django_db_migrations_operations_base'
p995
(dp996
g6
(dp997
g8
S'_usr_local_lib_python2_7_dist-packages_django_db_migrations_operations_base.html'
p998
sg10
S'/usr/local/lib/python2.7/dist-packages/django/db/migrations/operations/base'
p999
sg12
g13
(g14
g15
NtRp1000
(dp1001
g18
I1
sg19
I0
sg20
I33
sg21
I0
sg22
I0
sg23
I10
sg24
I0
sbssg25
S'\xf5\\\xbf\xe7c\xa5\xf3-\xf8\x1e\x93\xf9\xed\xbe\xb1.'
p1002
ssS'_usr_local_lib_python2_7_dist-packages_django_contrib_auth_management___init__'
p1003
(dp1004
g6
(dp1005
g8
S'_usr_local_lib_python2_7_dist-packages_django_contrib_auth_management___init__.html'
p1006
sg10
S'/usr/local/lib/python2.7/dist-packages/django/contrib/auth/management/__init__'
p1007
sg12
g13
(g14
g15
NtRp1008
(dp1009
g18
I1
sg19
I0
sg20
I89
sg21
I0
sg22
I0
sg23
I40
sg24
I0
sbssg25
S'\x13\xf9w\x07\x96&\xa7\x9em\xdbZG}\xceZk'
p1010
ssS'_usr_local_lib_python2_7_dist-packages_django_db_models_fields_related'
p1011
(dp1012
g6
(dp1013
g8
S'_usr_local_lib_python2_7_dist-packages_django_db_models_fields_related.html'
p1014
sg10
S'/usr/local/lib/python2.7/dist-packages/django/db/models/fields/related'
p1015
sg12
g13
(g14
g15
NtRp1016
(dp1017
g18
I1
sg19
I0
sg20
I1181
sg21
I0
sg22
I0
sg23
I674
sg24
I0
sbssg25
S'9r\xc4\xb5k!"\x94 \xae\'\xe1\x1adUM'
p1018
ssS'_usr_local_lib_python2_7_dist-packages_django_db_backends_creation'
p1019
(dp1020
g6
(dp1021
g8
S'_usr_local_lib_python2_7_dist-packages_django_db_backends_creation.html'
p1022
sg10
S'/usr/local/lib/python2.7/dist-packages/django/db/backends/creation'
p1023
sg12
g13
(g14
g15
NtRp1024
(dp1025
g18
I1
sg19
I0
sg20
I287
sg21
I0
sg22
I0
sg23
I126
sg24
I0
sbssg25
S'\xef\xe74\x806\xfc\xe8\xc99\x86\xdb\x15\x18m\x1d\xdd'
p1026
ssS'_usr_local_lib_python2_7_dist-packages_django_db_models_fields_files'
p1027
(dp1028
g6
(dp1029
g8
S'_usr_local_lib_python2_7_dist-packages_django_db_models_fields_files.html'
p1030
sg10
S'/usr/local/lib/python2.7/dist-packages/django/db/models/fields/files'
p1031
sg12
g13
(g14
g15
NtRp1032
(dp1033
g18
I1
sg19
I0
sg20
I247
sg21
I0
sg22
I0
sg23
I170
sg24
I0
sbssg25
S'\x93c\xa2\xc2\xac.\x9b\x9d\xc9\x0f\xf3\xfa%\x12\x8e\xe9'
p1034
ssS'practica___init__'
p1035
(dp1036
g6
(dp1037
g8
S'practica___init__.html'
p1038
sg10
S'practica/__init__'
p1039
sg12
g13
(g14
g15
NtRp1040
(dp1041
g18
I1
sg19
I0
sg20
I0
sg21
I0
sg22
I0
sg23
I0
sg24
I0
sbssg25
S'\xca\xf5\x9f\x7f\x88\xdfa\x831|T\x1d\xbc}\xa5v'
p1042
ssS'_usr_local_lib_python2_7_dist-packages_django_utils_html_parser'
p1043
(dp1044
g6
(dp1045
g8
S'_usr_local_lib_python2_7_dist-packages_django_utils_html_parser.html'
p1046
sg10
S'/usr/local/lib/python2.7/dist-packages/django/utils/html_parser'
p1047
sg12
g13
(g14
g15
NtRp1048
(dp1049
g18
I1
sg19
I0
sg20
I86
sg21
I0
sg22
I0
sg23
I77
sg24
I0
sbssg25
S'p\x94\x8f!\xe5`\x89\x10\xf8R\xf2\xd7@~\xc1\xc9'
p1050
ssS'_usr_local_lib_python2_7_dist-packages_django_db_models_constants'
p1051
(dp1052
g6
(dp1053
g8
S'_usr_local_lib_python2_7_dist-packages_django_db_models_constants.html'
p1054
sg10
S'/usr/local/lib/python2.7/dist-packages/django/db/models/constants'
p1055
sg12
g13
(g14
g15
NtRp1056
(dp1057
g18
I1
sg19
I0
sg20
I1
sg21
I0
sg22
I0
sg23
I0
sg24
I0
sbssg25
S'K\x0f@\x85\xa8\x06~v\xd55D;1,\x0f\x95'
p1058
ssS'_usr_local_lib_python2_7_dist-packages_django_contrib_staticfiles_models'
p1059
(dp1060
g6
(dp1061
g8
S'_usr_local_lib_python2_7_dist-packages_django_contrib_staticfiles_models.html'
p1062
sg10
S'/usr/local/lib/python2.7/dist-packages/django/contrib/staticfiles/models'
p1063
sg12
g13
(g14
g15
NtRp1064
(dp1065
g18
I1
sg19
I0
sg20
I0
sg21
I0
sg22
I0
sg23
I0
sg24
I0
sbssg25
S'\xca\xf5\x9f\x7f\x88\xdfa\x831|T\x1d\xbc}\xa5v'
p1066
ssS'_usr_local_lib_python2_7_dist-packages_django_db_models_sql_aggregates'
p1067
(dp1068
g6
(dp1069
g8
S'_usr_local_lib_python2_7_dist-packages_django_db_models_sql_aggregates.html'
p1070
sg10
S'/usr/local/lib/python2.7/dist-packages/django/db/models/sql/aggregates'
p1071
sg12
g13
(g14
g15
NtRp1072
(dp1073
g18
I1
sg19
I0
sg20
I70
sg21
I0
sg22
I0
sg23
I34
sg24
I0
sbssg25
S']\xe3m\xffj\xab\xaeMKx\xf5\x12(\xc3\x96\xd0'
p1074
ssS'_usr_local_lib_python2_7_dist-packages_django_contrib_contenttypes_models'
p1075
(dp1076
g6
(dp1077
g8
S'_usr_local_lib_python2_7_dist-packages_django_contrib_contenttypes_models.html'
p1078
sg10
S'/usr/local/lib/python2.7/dist-packages/django/contrib/contenttypes/models'
p1079
sg12
g13
(g14
g15
NtRp1080
(dp1081
g18
I1
sg19
I0
sg20
I105
sg21
I0
sg22
I0
sg23
I54
sg24
I0
sbssg25
S'\xbf\xf9\xf6\xda\xbf\x93b\x16\xe6\xc2\xeb.\xd0\xbeEv'
p1082
ssS'_usr_local_lib_python2_7_dist-packages_django_contrib_auth_apps'
p1083
(dp1084
g6
(dp1085
g8
S'_usr_local_lib_python2_7_dist-packages_django_contrib_auth_apps.html'
p1086
sg10
S'/usr/local/lib/python2.7/dist-packages/django/contrib/auth/apps'
p1087
sg12
g13
(g14
g15
NtRp1088
(dp1089
g18
I1
sg19
I0
sg20
I9
sg21
I0
sg22
I0
sg23
I0
sg24
I0
sbssg25
S'\x15\xf84\x94\xb2v\xc6!\x06\x96a\xf4\x86$\xd8N'
p1090
ssS'leercsv_models'
p1091
(dp1092
g6
(dp1093
g8
S'leercsv_models.html'
p1094
sg10
S'leercsv/models'
p1095
sg12
g13
(g14
g15
NtRp1096
(dp1097
g18
I1
sg19
I0
sg20
I44
sg21
I0
sg22
I0
sg23
I1
sg24
I0
sbssg25
S'\x10\xd6\x88\xb1O\x02\xec\x05\x02\xb3\x87F\x16T\x07\xf4'
p1098
ssS'_usr_local_lib_python2_7_dist-packages_django_forms_forms'
p1099
(dp1100
g6
(dp1101
g8
S'_usr_local_lib_python2_7_dist-packages_django_forms_forms.html'
p1102
sg10
S'/usr/local/lib/python2.7/dist-packages/django/forms/forms'
p1103
sg12
g13
(g14
g15
NtRp1104
(dp1105
g18
I1
sg19
I0
sg20
I325
sg21
I0
sg22
I0
sg23
I242
sg24
I0
sbssg25
S"\x10\x02R\x83'eL\xb0\x9fi^t\xac\xcd_\xe5"
p1106
ssS'practica_settings'
p1107
(dp1108
g6
(dp1109
g8
S'practica_settings.html'
p1110
sg10
S'practica/settings'
p1111
sg12
g13
(g14
g15
NtRp1112
(dp1113
g18
I1
sg19
I0
sg20
I26
sg21
I0
sg22
I0
sg23
I0
sg24
I0
sbssg25
S'\x02\x9a\xec&\xdf\xa1\x9ak\xe1\x0fO\xed\x82&=\xde'
p1114
ssS'_usr_local_lib_python2_7_dist-packages_django_utils_log'
p1115
(dp1116
g6
(dp1117
g8
S'_usr_local_lib_python2_7_dist-packages_django_utils_log.html'
p1118
sg10
S'/usr/local/lib/python2.7/dist-packages/django/utils/log'
p1119
sg12
g13
(g14
g15
NtRp1120
(dp1121
g18
I1
sg19
I0
sg20
I65
sg21
I0
sg22
I0
sg23
I26
sg24
I0
sbssg25
S'\xf7kX &f\xd4\xd3\xc9\x11\xcc\xc1\x8c=r\xb5'
p1122
ssS'_usr_local_lib_python2_7_dist-packages_django_utils_encoding'
p1123
(dp1124
g6
(dp1125
g8
S'_usr_local_lib_python2_7_dist-packages_django_utils_encoding.html'
p1126
sg10
S'/usr/local/lib/python2.7/dist-packages/django/utils/encoding'
p1127
sg12
g13
(g14
g15
NtRp1128
(dp1129
g18
I1
sg19
I0
sg20
I98
sg21
I0
sg22
I0
sg23
I35
sg24
I0
sbssg25
S'15\x8f2-\xdf\x08\xc2\xca\x10\xda\xe3\xa5\xa0\x99\xf6'
p1130
ssS'_usr_local_lib_python2_7_dist-packages_psycopg2__range'
p1131
(dp1132
g6
(dp1133
g8
S'_usr_local_lib_python2_7_dist-packages_psycopg2__range.html'
p1134
sg10
S'/usr/local/lib/python2.7/dist-packages/psycopg2/_range'
p1135
sg12
g13
(g14
g15
NtRp1136
(dp1137
g18
I1
sg19
I0
sg20
I235
sg21
I0
sg22
I0
sg23
I149
sg24
I0
sbssg25
S'\xbc\xea\xb9\xdb\xe8\x1dR\x15\xa7\xd7\xac\xa1S\x12\xd7\x07'
p1138
ssS'_usr_local_lib_python2_7_dist-packages_django_db_backends_utils'
p1139
(dp1140
g6
(dp1141
g8
S'_usr_local_lib_python2_7_dist-packages_django_db_backends_utils.html'
p1142
sg10
S'/usr/local/lib/python2.7/dist-packages/django/db/backends/utils'
p1143
sg12
g13
(g14
g15
NtRp1144
(dp1145
g18
I1
sg19
I0
sg20
I120
sg21
I0
sg22
I0
sg23
I73
sg24
I0
sbssg25
S'\xc3\xf5\xf1\xf3qg\xdb5\x81)/\nb\xf8g\x8b'
p1146
ssS'_usr_local_lib_python2_7_dist-packages_django_db_migrations_operations_models'
p1147
(dp1148
g6
(dp1149
g8
S'_usr_local_lib_python2_7_dist-packages_django_db_migrations_operations_models.html'
p1150
sg10
S'/usr/local/lib/python2.7/dist-packages/django/db/migrations/operations/models'
p1151
sg12
g13
(g14
g15
NtRp1152
(dp1153
g18
I1
sg19
I0
sg20
I215
sg21
I0
sg22
I0
sg23
I127
sg24
I0
sbssg25
S'\x06\x15\xd2`7\xb7ZH\xdc\x00\\\r\x9b\n\xdd\xad'
p1154
ssS'_usr_local_lib_python2_7_dist-packages_django_db_models_signals'
p1155
(dp1156
g6
(dp1157
g8
S'_usr_local_lib_python2_7_dist-packages_django_db_models_signals.html'
p1158
sg10
S'/usr/local/lib/python2.7/dist-packages/django/db/models/signals'
p1159
sg12
g13
(g14
g15
NtRp1160
(dp1161
g18
I1
sg19
I0
sg20
I43
sg21
I0
sg22
I0
sg23
I13
sg24
I0
sbssg25
S'\xb0\x8b\x99\xfc]2\xbf\xfc\xb8\xffx]D\xfe\xe1\xad'
p1162
ssS'_usr_local_lib_python2_7_dist-packages_django_test___init__'
p1163
(dp1164
g6
(dp1165
g8
S'_usr_local_lib_python2_7_dist-packages_django_test___init__.html'
p1166
sg10
S'/usr/local/lib/python2.7/dist-packages/django/test/__init__'
p1167
sg12
g13
(g14
g15
NtRp1168
(dp1169
g18
I1
sg19
I0
sg20
I4
sg21
I0
sg22
I0
sg23
I0
sg24
I0
sbssg25
S'\xba/\x8e\xd7\x9b\xd2\xd7D\x00\x91?\x10\x97T\xcf\x18'
p1170
ssS'_usr_local_lib_python2_7_dist-packages_django_db_migrations_questioner'
p1171
(dp1172
g6
(dp1173
g8
S'_usr_local_lib_python2_7_dist-packages_django_db_migrations_questioner.html'
p1174
sg10
S'/usr/local/lib/python2.7/dist-packages/django/db/migrations/questioner'
p1175
sg12
g13
(g14
g15
NtRp1176
(dp1177
g18
I1
sg19
I0
sg20
I101
sg21
I0
sg22
I0
sg23
I75
sg24
I0
sbssg25
S"\xabs)\xd4'\xe2U\x944u\xee\x08T[\xc2X"
p1178
ssS'_usr_local_lib_python2_7_dist-packages_django_db_models_fields_subclassing'
p1179
(dp1180
g6
(dp1181
g8
S'_usr_local_lib_python2_7_dist-packages_django_db_models_fields_subclassing.html'
p1182
sg10
S'/usr/local/lib/python2.7/dist-packages/django/db/models/fields/subclassing'
p1183
sg12
g13
(g14
g15
NtRp1184
(dp1185
g18
I1
sg19
I0
sg20
I21
sg21
I0
sg22
I0
sg23
I14
sg24
I0
sbssg25
S"'\xde\xec\xb2\xaf\xf0\xfd\x9c.|\xf2\xe2\x8aR\x14\x94"
p1186
ssS'_usr_local_lib_python2_7_dist-packages_django_utils_cache'
p1187
(dp1188
g6
(dp1189
g8
S'_usr_local_lib_python2_7_dist-packages_django_utils_cache.html'
p1190
sg10
S'/usr/local/lib/python2.7/dist-packages/django/utils/cache'
p1191
sg12
g13
(g14
g15
NtRp1192
(dp1193
g18
I1
sg19
I0
sg20
I133
sg21
I0
sg22
I0
sg23
I109
sg24
I0
sbssg25
S'\x8b\xa0D\xc4`G\xa5m\xdb\xd0\xff\xdd\xbb\xfd\nQ'
p1194
ssS'_usr_local_lib_python2_7_dist-packages_django_utils_text'
p1195
(dp1196
g6
(dp1197
g8
S'_usr_local_lib_python2_7_dist-packages_django_utils_text.html'
p1198
sg10
S'/usr/local/lib/python2.7/dist-packages/django/utils/text'
p1199
sg12
g13
(g14
g15
NtRp1200
(dp1201
g18
I1
sg19
I0
sg20
I239
sg21
I0
sg22
I0
sg23
I174
sg24
I0
sbssg25
S'\x01\xab:C\xb6\x06\xf0\xc7\xfe\x10\xf8\x11\x02\xe3A\xfa'
p1202
ssS'_usr_local_lib_python2_7_dist-packages_django_core_checks_registry'
p1203
(dp1204
g6
(dp1205
g8
S'_usr_local_lib_python2_7_dist-packages_django_core_checks_registry.html'
p1206
sg10
S'/usr/local/lib/python2.7/dist-packages/django/core/checks/registry'
p1207
sg12
g13
(g14
g15
NtRp1208
(dp1209
g18
I1
sg19
I0
sg20
I36
sg21
I0
sg22
I0
sg23
I3
sg24
I0
sbssg25
S')\\\xfeP\xa9\xa2\xa2\xcc.g\xa5\x897\xdf\x0f\x97'
p1210
ssS'_usr_local_lib_python2_7_dist-packages_django_db_models_sql_where'
p1211
(dp1212
g6
(dp1213
g8
S'_usr_local_lib_python2_7_dist-packages_django_db_models_sql_where.html'
p1214
sg10
S'/usr/local/lib/python2.7/dist-packages/django/db/models/sql/where'
p1215
sg12
g13
(g14
g15
NtRp1216
(dp1217
g18
I1
sg19
I0
sg20
I236
sg21
I0
sg22
I0
sg23
I153
sg24
I0
sbssg25
S'\xc0\x85"@0\x97\xfd;GU\xc4~bi\t%'
p1218
ssS'_usr_local_lib_python2_7_dist-packages_django_utils__os'
p1219
(dp1220
g6
(dp1221
g8
S'_usr_local_lib_python2_7_dist-packages_django_utils__os.html'
p1222
sg10
S'/usr/local/lib/python2.7/dist-packages/django/utils/_os'
p1223
sg12
g13
(g14
g15
NtRp1224
(dp1225
g18
I1
sg19
I0
sg20
I58
sg21
I0
sg22
I0
sg23
I34
sg24
I0
sbssg25
S'>\xc8Dd\x8f\\\x1bm\xda\xd8Y\x8cY,\x9a\xda'
p1226
ssS'_usr_local_lib_python2_7_dist-packages_django_template_loaders_cached'
p1227
(dp1228
g6
(dp1229
g8
S'_usr_local_lib_python2_7_dist-packages_django_template_loaders_cached.html'
p1230
sg10
S'/usr/local/lib/python2.7/dist-packages/django/template/loaders/cached'
p1231
sg12
g13
(g14
g15
NtRp1232
(dp1233
g18
I1
sg19
I0
sg20
I57
sg21
I0
sg22
I0
sg23
I45
sg24
I0
sbssg25
S'\xb6\xeb\xd6G\xbc\xd5\xc2\x19\x9f\xca\xaa\xd9M\x12\xc5\x1e'
p1234
ssS'_usr_local_lib_python2_7_dist-packages_django_contrib_sites_management'
p1235
(dp1236
g6
(dp1237
g8
S'_usr_local_lib_python2_7_dist-packages_django_contrib_sites_management.html'
p1238
sg10
S'/usr/local/lib/python2.7/dist-packages/django/contrib/sites/management'
p1239
sg12
g13
(g14
g15
NtRp1240
(dp1241
g18
I1
sg19
I0
sg20
I24
sg21
I0
sg22
I0
sg23
I5
sg24
I0
sbssg25
S'\xd9\x95\x93\xf8\xab\xe8\x00)\xd3\xdbW\x04`J\xbdt'
p1242
ssS'_usr_local_lib_python2_7_dist-packages_django_db_models_sql___init__'
p1243
(dp1244
g6
(dp1245
g8
S'_usr_local_lib_python2_7_dist-packages_django_db_models_sql___init__.html'
p1246
sg10
S'/usr/local/lib/python2.7/dist-packages/django/db/models/sql/__init__'
p1247
sg12
g13
(g14
g15
NtRp1248
(dp1249
g18
I1
sg19
I0
sg20
I5
sg21
I0
sg22
I0
sg23
I0
sg24
I0
sbssg25
S'\xe0&\xa6\xf7x\xac\xe6\xde\xb7\xfb\x06\xee\xe3P^g'
p1250
ssS'_usr_local_lib_python2_7_dist-packages_django_db_models_fields_proxy'
p1251
(dp1252
g6
(dp1253
g8
S'_usr_local_lib_python2_7_dist-packages_django_db_models_fields_proxy.html'
p1254
sg10
S'/usr/local/lib/python2.7/dist-packages/django/db/models/fields/proxy'
p1255
sg12
g13
(g14
g15
NtRp1256
(dp1257
g18
I1
sg19
I0
sg20
I10
sg21
I0
sg22
I0
sg23
I6
sg24
I0
sbssg25
S'A\xd5\xd6O(Iu\xb8P\xd7\xdbG]z\xe2x'
p1258
ssS'_usr_local_lib_python2_7_dist-packages_django_forms_formsets'
p1259
(dp1260
g6
(dp1261
g8
S'_usr_local_lib_python2_7_dist-packages_django_forms_formsets.html'
p1262
sg10
S'/usr/local/lib/python2.7/dist-packages/django/forms/formsets'
p1263
sg12
g13
(g14
g15
NtRp1264
(dp1265
g18
I1
sg19
I0
sg20
I221
sg21
I0
sg22
I0
sg23
I160
sg24
I0
sbssg25
S';\xcc\xcaO\x97\xb8\xc4t\xa6\xfc_7\xf2\x81\nM'
p1266
ssS'_usr_local_lib_python2_7_dist-packages_django_utils_six'
p1267
(dp1268
g6
(dp1269
g8
S'_usr_local_lib_python2_7_dist-packages_django_utils_six.html'
p1270
sg10
S'/usr/local/lib/python2.7/dist-packages/django/utils/six'
p1271
sg12
g13
(g14
g15
NtRp1272
(dp1273
g18
I1
sg19
I0
sg20
I355
sg21
I0
sg22
I0
sg23
I160
sg24
I0
sbssg25
S'\xfe\xa48\x85\xc5\xd0\xe8\xfc$\xf8\x85\xb7\xf7\x96\x88N'
p1274
ssS'_usr_local_lib_python2_7_dist-packages_django_contrib_sites_migrations___init__'
p1275
(dp1276
g6
(dp1277
g8
S'_usr_local_lib_python2_7_dist-packages_django_contrib_sites_migrations___init__.html'
p1278
sg10
S'/usr/local/lib/python2.7/dist-packages/django/contrib/sites/migrations/__init__'
p1279
sg12
g13
(g14
g15
NtRp1280
(dp1281
g18
I1
sg19
I0
sg20
I0
sg21
I0
sg22
I0
sg23
I0
sg24
I0
sbssg25
S'\xca\xf5\x9f\x7f\x88\xdfa\x831|T\x1d\xbc}\xa5v'
p1282
ssS'_usr_local_lib_python2_7_dist-packages_django_db_migrations_executor'
p1283
(dp1284
g6
(dp1285
g8
S'_usr_local_lib_python2_7_dist-packages_django_db_migrations_executor.html'
p1286
sg10
S'/usr/local/lib/python2.7/dist-packages/django/db/migrations/executor'
p1287
sg12
g13
(g14
g15
NtRp1288
(dp1289
g18
I1
sg19
I0
sg20
I94
sg21
I0
sg22
I0
sg23
I40
sg24
I0
sbssg25
S"K\xbe1\x93=\x1a\xdc'\x97h^i\xcf \xca\x04"
p1290
ssS'_usr_local_lib_python2_7_dist-packages_django_utils_synch'
p1291
(dp1292
g6
(dp1293
g8
S'_usr_local_lib_python2_7_dist-packages_django_utils_synch.html'
p1294
sg10
S'/usr/local/lib/python2.7/dist-packages/django/utils/synch'
p1295
sg12
g13
(g14
g15
NtRp1296
(dp1297
g18
I1
sg19
I0
sg20
I59
sg21
I0
sg22
I0
sg23
I41
sg24
I0
sbssg25
S'XcEAm1o\x86 G\xd3\x04\xbb)7z'
p1298
ssS'_usr_local_lib_python2_7_dist-packages_django_core_checks_model_checks'
p1299
(dp1300
g6
(dp1301
g8
S'_usr_local_lib_python2_7_dist-packages_django_core_checks_model_checks.html'
p1302
sg10
S'/usr/local/lib/python2.7/dist-packages/django/core/checks/model_checks'
p1303
sg12
g13
(g14
g15
NtRp1304
(dp1305
g18
I1
sg19
I0
sg20
I28
sg21
I0
sg22
I0
sg23
I6
sg24
I0
sbssg25
S'UnZu\xe9\x0b\xcb/\xdb\x15\xbc1\xef\xba\xd3|'
p1306
ssS'_usr_local_lib_python2_7_dist-packages_django_core_serializers___init__'
p1307
(dp1308
g6
(dp1309
g8
S'_usr_local_lib_python2_7_dist-packages_django_core_serializers___init__.html'
p1310
sg10
S'/usr/local/lib/python2.7/dist-packages/django/core/serializers/__init__'
p1311
sg12
g13
(g14
g15
NtRp1312
(dp1313
g18
I1
sg19
I0
sg20
I64
sg21
I0
sg22
I0
sg23
I22
sg24
I0
sbssg25
S"\x82\x1e\xd2\xd0<\xf5'\xc3Z\xb7\x83X\x1f&\x92\xac"
p1314
ssS'_usr_local_lib_python2_7_dist-packages_django_test_testcases'
p1315
(dp1316
g6
(dp1317
g8
S'_usr_local_lib_python2_7_dist-packages_django_test_testcases.html'
p1318
sg10
S'/usr/local/lib/python2.7/dist-packages/django/test/testcases'
p1319
sg12
g13
(g14
g15
NtRp1320
(dp1321
g18
I1
sg19
I0
sg20
I604
sg21
I0
sg22
I0
sg23
I467
sg24
I0
sbssg25
S'\xe0c\xec\n\x97,\xb6\x0f\xe1B\x90\xb0\x9b\x1b\xf5Y'
p1322
ssS'_usr_local_lib_python2_7_dist-packages_django_contrib_auth_hashers'
p1323
(dp1324
g6
(dp1325
g8
S'_usr_local_lib_python2_7_dist-packages_django_contrib_auth_hashers.html'
p1326
sg10
S'/usr/local/lib/python2.7/dist-packages/django/contrib/auth/hashers'
p1327
sg12
g13
(g14
g15
NtRp1328
(dp1329
g18
I1
sg19
I0
sg20
I247
sg21
I0
sg22
I0
sg23
I160
sg24
I0
sbssg25
S';\x90\x16?\x16\x05\xa5v\x0b\x19\x86f\x98\x8e\xfe}'
p1330
ssS'_usr_local_lib_python2_7_dist-packages_django_apps_registry'
p1331
(dp1332
g6
(dp1333
g8
S'_usr_local_lib_python2_7_dist-packages_django_apps_registry.html'
p1334
sg10
S'/usr/local/lib/python2.7/dist-packages/django/apps/registry'
p1335
sg12
g13
(g14
g15
NtRp1336
(dp1337
g18
I1
sg19
I0
sg20
I181
sg21
I0
sg22
I0
sg23
I75
sg24
I0
sbssg25
S'\xe7F\x0by\xe3r\x02M\xf0\xcd \xdbc\xae\xc7\x8f'
p1338
ssS'_usr_local_lib_python2_7_dist-packages_django_forms_fields'
p1339
(dp1340
g6
(dp1341
g8
S'_usr_local_lib_python2_7_dist-packages_django_forms_fields.html'
p1342
sg10
S'/usr/local/lib/python2.7/dist-packages/django/forms/fields'
p1343
sg12
g13
(g14
g15
NtRp1344
(dp1345
g18
I1
sg19
I0
sg20
I676
sg21
I0
sg22
I0
sg23
I500
sg24
I0
sbssg25
S'\x84\xd7\xda\xf4cx\xc8:\xff\x15\xbdZ\xc6\xc6\xa5['
p1346
ssS'_usr_local_lib_python2_7_dist-packages_django_core_cache___init__'
p1347
(dp1348
g6
(dp1349
g8
S'_usr_local_lib_python2_7_dist-packages_django_core_cache___init__.html'
p1350
sg10
S'/usr/local/lib/python2.7/dist-packages/django/core/cache/__init__'
p1351
sg12
g13
(g14
g15
NtRp1352
(dp1353
g18
I1
sg19
I0
sg20
I72
sg21
I0
sg22
I0
sg23
I26
sg24
I0
sbssg25
S'\xce\x94\xf0\x0e\x82\xd3\x8ew\xfbd\xdeA&\xdd\xd6\xe4'
p1354
ssS'_usr_local_lib_python2_7_dist-packages_django_db_migrations___init__'
p1355
(dp1356
g6
(dp1357
g8
S'_usr_local_lib_python2_7_dist-packages_django_db_migrations___init__.html'
p1358
sg10
S'/usr/local/lib/python2.7/dist-packages/django/db/migrations/__init__'
p1359
sg12
g13
(g14
g15
NtRp1360
(dp1361
g18
I1
sg19
I0
sg20
I2
sg21
I0
sg22
I0
sg23
I0
sg24
I0
sbssg25
S'`j\xe71\xb5\xd6\x16\xd3Kw\xba^\x04:M\xf2'
p1362
ssS'_usr_local_lib_python2_7_dist-packages_django_contrib___init__'
p1363
(dp1364
g6
(dp1365
g8
S'_usr_local_lib_python2_7_dist-packages_django_contrib___init__.html'
p1366
sg10
S'/usr/local/lib/python2.7/dist-packages/django/contrib/__init__'
p1367
sg12
g13
(g14
g15
NtRp1368
(dp1369
g18
I1
sg19
I0
sg20
I0
sg21
I0
sg22
I0
sg23
I0
sg24
I0
sbssg25
S'\xca\xf5\x9f\x7f\x88\xdfa\x831|T\x1d\xbc}\xa5v'
p1370
ssS'_usr_local_lib_python2_7_dist-packages_django_db_migrations_state'
p1371
(dp1372
g6
(dp1373
g8
S'_usr_local_lib_python2_7_dist-packages_django_db_migrations_state.html'
p1374
sg10
S'/usr/local/lib/python2.7/dist-packages/django/db/migrations/state'
p1375
sg12
g13
(g14
g15
NtRp1376
(dp1377
g18
I1
sg19
I0
sg20
I181
sg21
I0
sg22
I0
sg23
I61
sg24
I0
sbssg25
S'\x0e\xd1\xf1\x1e\xb26\x80p\x82+~+\x81\xb0\xb8\xee'
p1378
ssS'_usr_local_lib_python2_7_dist-packages_django_core_checks_compatibility_django_1_6_0'
p1379
(dp1380
g6
(dp1381
g8
S'_usr_local_lib_python2_7_dist-packages_django_core_checks_compatibility_django_1_6_0.html'
p1382
sg10
S'/usr/local/lib/python2.7/dist-packages/django/core/checks/compatibility/django_1_6_0'
p1383
sg12
g13
(g14
g15
NtRp1384
(dp1385
g18
I1
sg19
I0
sg20
I36
sg21
I0
sg22
I0
sg23
I3
sg24
I0
sbssg25
S"\x8b\x01'\xdd|M\xe5\xab\xd7x\x9cF\xc2cp\x9e"
p1386
ssS'_usr_local_lib_python2_7_dist-packages_django_contrib_sessions_apps'
p1387
(dp1388
g6
(dp1389
g8
S'_usr_local_lib_python2_7_dist-packages_django_contrib_sessions_apps.html'
p1390
sg10
S'/usr/local/lib/python2.7/dist-packages/django/contrib/sessions/apps'
p1391
sg12
g13
(g14
g15
NtRp1392
(dp1393
g18
I1
sg19
I0
sg20
I5
sg21
I0
sg22
I0
sg23
I0
sg24
I0
sbssg25
S'\xe9\xb9\xdeKDm\xd7D\x86x\x1e\x01\xa4a\xf19'
p1394
ssS'_usr_local_lib_python2_7_dist-packages_django_core_cache_backends_locmem'
p1395
(dp1396
g6
(dp1397
g8
S'_usr_local_lib_python2_7_dist-packages_django_core_cache_backends_locmem.html'
p1398
sg10
S'/usr/local/lib/python2.7/dist-packages/django/core/cache/backends/locmem'
p1399
sg12
g13
(g14
g15
NtRp1400
(dp1401
g18
I1
sg19
I0
sg20
I108
sg21
I0
sg22
I0
sg23
I81
sg24
I0
sbssg25
S"\x04'\x07\x06I\x0e\xa96G\xd8\x94w\x0b\x08Z\xe9"
p1402
ssS'_usr_local_lib_python2_7_dist-packages_django_contrib_sessions_exceptions'
p1403
(dp1404
g6
(dp1405
g8
S'_usr_local_lib_python2_7_dist-packages_django_contrib_sessions_exceptions.html'
p1406
sg10
S'/usr/local/lib/python2.7/dist-packages/django/contrib/sessions/exceptions'
p1407
sg12
g13
(g14
g15
NtRp1408
(dp1409
g18
I1
sg19
I0
sg20
I5
sg21
I0
sg22
I0
sg23
I0
sg24
I0
sbssg25
S'\x95\x04\x01\x10c\xc83\xdaB\xb8qa\xe6[c\xd8'
p1410
ssS'_usr_local_lib_python2_7_dist-packages_django_contrib_messages_models'
p1411
(dp1412
g6
(dp1413
g8
S'_usr_local_lib_python2_7_dist-packages_django_contrib_messages_models.html'
p1414
sg10
S'/usr/local/lib/python2.7/dist-packages/django/contrib/messages/models'
p1415
sg12
g13
(g14
g15
NtRp1416
(dp1417
g18
I1
sg19
I0
sg20
I0
sg21
I0
sg22
I0
sg23
I0
sg24
I0
sbssg25
S'@\xce\xa8\x1c\x878\x17\xf9\x8fE\xaa\xd8\x99\xe1\x85\x93'
p1418
ssS'_usr_local_lib_python2_7_dist-packages_django_contrib_contenttypes___init__'
p1419
(dp1420
g6
(dp1421
g8
S'_usr_local_lib_python2_7_dist-packages_django_contrib_contenttypes___init__.html'
p1422
sg10
S'/usr/local/lib/python2.7/dist-packages/django/contrib/contenttypes/__init__'
p1423
sg12
g13
(g14
g15
NtRp1424
(dp1425
g18
I1
sg19
I0
sg20
I1
sg21
I0
sg22
I0
sg23
I0
sg24
I0
sbssg25
S'"#\xe0P\xa1Rc{e<\xf5\x9e\x04\x96"N'
p1426
ssS'_usr_local_lib_python2_7_dist-packages_django_db_migrations_loader'
p1427
(dp1428
g6
(dp1429
g8
S'_usr_local_lib_python2_7_dist-packages_django_db_migrations_loader.html'
p1430
sg10
S'/usr/local/lib/python2.7/dist-packages/django/db/migrations/loader'
p1431
sg12
g13
(g14
g15
NtRp1432
(dp1433
g18
I1
sg19
I0
sg20
I165
sg21
I0
sg22
I0
sg23
I58
sg24
I0
sbssg25
S'1\x9eq\xbd\xca\x89\x94\x02\xdbr\xd5\x86vt\x9aR'
p1434
ssS'_usr_local_lib_python2_7_dist-packages_django_core_cache_backends_db'
p1435
(dp1436
g6
(dp1437
g8
S'_usr_local_lib_python2_7_dist-packages_django_core_cache_backends_db.html'
p1438
sg10
S'/usr/local/lib/python2.7/dist-packages/django/core/cache/backends/db'
p1439
sg12
g13
(g14
g15
NtRp1440
(dp1441
g18
I1
sg19
I0
sg20
I134
sg21
I0
sg22
I0
sg23
I109
sg24
I0
sbssg25
S'\xe8\xc5\x11e\x92\x11\xc1&\xa7\xbaj=\x9c\x10\xf8\xc9'
p1442
ssS'_usr_local_lib_python2_7_dist-packages_django_utils_timesince'
p1443
(dp1444
g6
(dp1445
g8
S'_usr_local_lib_python2_7_dist-packages_django_utils_timesince.html'
p1446
sg10
S'/usr/local/lib/python2.7/dist-packages/django/utils/timesince'
p1447
sg12
g13
(g14
g15
NtRp1448
(dp1449
g18
I1
sg19
I0
sg20
I30
sg21
I0
sg22
I0
sg23
I23
sg24
I0
sbssg25
S'\xea\x9f\xdaYp\xa9#\xe8\xa5\xa7\xf2\xd1\xb8\x06\xcc%'
p1450
ssS'_usr_local_lib_python2_7_dist-packages_django_core_signals'
p1451
(dp1452
g6
(dp1453
g8
S'_usr_local_lib_python2_7_dist-packages_django_core_signals.html'
p1454
sg10
S'/usr/local/lib/python2.7/dist-packages/django/core/signals'
p1455
sg12
g13
(g14
g15
NtRp1456
(dp1457
g18
I1
sg19
I0
sg20
I4
sg21
I0
sg22
I0
sg23
I0
sg24
I0
sbssg25
S'\x11)\xaf\xa7<%!O_\xa5\xae\x81Dl\xa7C'
p1458
ssS'_usr_local_lib_python2_7_dist-packages_django_utils_itercompat'
p1459
(dp1460
g6
(dp1461
g8
S'_usr_local_lib_python2_7_dist-packages_django_utils_itercompat.html'
p1462
sg10
S'/usr/local/lib/python2.7/dist-packages/django/utils/itercompat'
p1463
sg12
g13
(g14
g15
NtRp1464
(dp1465
g18
I1
sg19
I0
sg20
I6
sg21
I0
sg22
I0
sg23
I2
sg24
I0
sbssg25
S'3\xdb\xd1\x8c\x87z\xc1\tg?Z\xd6\x137+P'
p1466
ssS'_usr_local_lib_python2_7_dist-packages_django_db_migrations_operations___init__'
p1467
(dp1468
g6
(dp1469
g8
S'_usr_local_lib_python2_7_dist-packages_django_db_migrations_operations___init__.html'
p1470
sg10
S'/usr/local/lib/python2.7/dist-packages/django/db/migrations/operations/__init__'
p1471
sg12
g13
(g14
g15
NtRp1472
(dp1473
g18
I1
sg19
I0
sg20
I4
sg21
I0
sg22
I0
sg23
I0
sg24
I0
sbssg25
S'\x80!\xfc?\xf5\xe6\xab)\xd4\xad8\x02\x86s\x0f<'
p1474
ssS'_usr_local_lib_python2_7_dist-packages_django_views___init__'
p1475
(dp1476
g6
(dp1477
g8
S'_usr_local_lib_python2_7_dist-packages_django_views___init__.html'
p1478
sg10
S'/usr/local/lib/python2.7/dist-packages/django/views/__init__'
p1479
sg12
g13
(g14
g15
NtRp1480
(dp1481
g18
I1
sg19
I0
sg20
I0
sg21
I0
sg22
I0
sg23
I0
sg24
I0
sbssg25
S'\xca\xf5\x9f\x7f\x88\xdfa\x831|T\x1d\xbc}\xa5v'
p1482
ssS'_usr_local_lib_python2_7_dist-packages_django_contrib_messages_apps'
p1483
(dp1484
g6
(dp1485
g8
S'_usr_local_lib_python2_7_dist-packages_django_contrib_messages_apps.html'
p1486
sg10
S'/usr/local/lib/python2.7/dist-packages/django/contrib/messages/apps'
p1487
sg12
g13
(g14
g15
NtRp1488
(dp1489
g18
I1
sg19
I0
sg20
I5
sg21
I0
sg22
I0
sg23
I0
sg24
I0
sbssg25
S')m\xd9\x94\xbc0\xa5i~\xfc\x8eK\xe1{0\x94'
p1490
ssS'_usr_local_lib_python2_7_dist-packages_django_contrib_sessions_backends___init__'
p1491
(dp1492
g6
(dp1493
g8
S'_usr_local_lib_python2_7_dist-packages_django_contrib_sessions_backends___init__.html'
p1494
sg10
S'/usr/local/lib/python2.7/dist-packages/django/contrib/sessions/backends/__init__'
p1495
sg12
g13
(g14
g15
NtRp1496
(dp1497
g18
I1
sg19
I0
sg20
I0
sg21
I0
sg22
I0
sg23
I0
sg24
I0
sbssg25
S'\xca\xf5\x9f\x7f\x88\xdfa\x831|T\x1d\xbc}\xa5v'
p1498
ssS'_usr_local_lib_python2_7_dist-packages_django_utils_datastructures'
p1499
(dp1500
g6
(dp1501
g8
S'_usr_local_lib_python2_7_dist-packages_django_utils_datastructures.html'
p1502
sg10
S'/usr/local/lib/python2.7/dist-packages/django/utils/datastructures'
p1503
sg12
g13
(g14
g15
NtRp1504
(dp1505
g18
I1
sg19
I0
sg20
I317
sg21
I0
sg22
I0
sg23
I195
sg24
I0
sbssg25
S'4.\xd8\x19s\x01\x96\xc2\xda\x99),\xder,"'
p1506
ssS'_usr_local_lib_python2_7_dist-packages_django_contrib_contenttypes_apps'
p1507
(dp1508
g6
(dp1509
g8
S'_usr_local_lib_python2_7_dist-packages_django_contrib_contenttypes_apps.html'
p1510
sg10
S'/usr/local/lib/python2.7/dist-packages/django/contrib/contenttypes/apps'
p1511
sg12
g13
(g14
g15
NtRp1512
(dp1513
g18
I1
sg19
I0
sg20
I9
sg21
I0
sg22
I0
sg23
I0
sg24
I0
sbssg25
S'J\xbf,\xb6\x0e~K\n\xadl\xf0\xb6\xb1d:\x0f'
p1514
ssS'_usr_local_lib_python2_7_dist-packages_django_contrib_sessions_backends_base'
p1515
(dp1516
g6
(dp1517
g8
S'_usr_local_lib_python2_7_dist-packages_django_contrib_sessions_backends_base.html'
p1518
sg10
S'/usr/local/lib/python2.7/dist-packages/django/contrib/sessions/backends/base'
p1519
sg12
g13
(g14
g15
NtRp1520
(dp1521
g18
I1
sg19
I0
sg20
I181
sg21
I0
sg22
I0
sg23
I120
sg24
I0
sbssg25
S'\x9di\x1b~\x85\x99yY\xbe\x81\xc9\xebn\xf62\xb1'
p1522
ssS'leercsv___init__'
p1523
(dp1524
g6
(dp1525
g8
S'leercsv___init__.html'
p1526
sg10
S'leercsv/__init__'
p1527
sg12
g13
(g14
g15
NtRp1528
(dp1529
g18
I1
sg19
I0
sg20
I0
sg21
I0
sg22
I0
sg23
I0
sg24
I0
sbssg25
S'\xca\xf5\x9f\x7f\x88\xdfa\x831|T\x1d\xbc}\xa5v'
p1530
ssS'manage'
p1531
(dp1532
g6
(dp1533
g8
S'manage.html'
p1534
sg10
g1531
sg12
g13
(g14
g15
NtRp1535
(dp1536
g18
I1
sg19
I0
sg20
I6
sg21
I0
sg22
I0
sg23
I0
sg24
I0
sbssg25
S'\xbf\x14<\xaa\x8d\x98Rs\x9f\x95\x9f\x1b$\xbbR\x8f'
p1537
ssS'_usr_local_lib_python2_7_dist-packages_django_forms___init__'
p1538
(dp1539
g6
(dp1540
g8
S'_usr_local_lib_python2_7_dist-packages_django_forms___init__.html'
p1541
sg10
S'/usr/local/lib/python2.7/dist-packages/django/forms/__init__'
p1542
sg12
g13
(g14
g15
NtRp1543
(dp1544
g18
I1
sg19
I0
sg20
I6
sg21
I0
sg22
I0
sg23
I0
sg24
I0
sbssg25
S'\xd9\x11j\xf9_X\x911mp\xbe\xe8s^\x8f\x84'
p1545
ssS'_usr_local_lib_python2_7_dist-packages_django_core_checks_compatibility___init__'
p1546
(dp1547
g6
(dp1548
g8
S'_usr_local_lib_python2_7_dist-packages_django_core_checks_compatibility___init__.html'
p1549
sg10
S'/usr/local/lib/python2.7/dist-packages/django/core/checks/compatibility/__init__'
p1550
sg12
g13
(g14
g15
NtRp1551
(dp1552
g18
I1
sg19
I0
sg20
I0
sg21
I0
sg22
I0
sg23
I0
sg24
I0
sbssg25
S'\xca\xf5\x9f\x7f\x88\xdfa\x831|T\x1d\xbc}\xa5v'
p1553
ssS'_usr_local_lib_python2_7_dist-packages_django_db_models_related'
p1554
(dp1555
g6
(dp1556
g8
S'_usr_local_lib_python2_7_dist-packages_django_db_models_related.html'
p1557
sg10
S'/usr/local/lib/python2.7/dist-packages/django/db/models/related'
p1558
sg12
g13
(g14
g15
NtRp1559
(dp1560
g18
I1
sg19
I0
sg20
I35
sg21
I0
sg22
I0
sg23
I13
sg24
I0
sbssg25
S'\xb8\xf5\xae\xb3V\x8d\xde^\x08nR\xfdQ\x96\xc5P'
p1561
ssS'_usr_local_lib_python2_7_dist-packages_django_template_defaulttags'
p1562
(dp1563
g6
(dp1564
g8
S'_usr_local_lib_python2_7_dist-packages_django_template_defaulttags.html'
p1565
sg10
S'/usr/local/lib/python2.7/dist-packages/django/template/defaulttags'
p1566
sg12
g13
(g14
g15
NtRp1567
(dp1568
g18
I1
sg19
I0
sg20
I621
sg21
I0
sg22
I0
sg23
I497
sg24
I0
sbssg25
S';\xc5,\xd2?\xaf\xb62\xf8\xf2EZ\x08,\xc1@'
p1569
ssS'_usr_local_lib_python2_7_dist-packages_django_core_serializers_pyyaml'
p1570
(dp1571
g6
(dp1572
g8
S'_usr_local_lib_python2_7_dist-packages_django_core_serializers_pyyaml.html'
p1573
sg10
S'/usr/local/lib/python2.7/dist-packages/django/core/serializers/pyyaml'
p1574
sg12
g13
(g14
g15
NtRp1575
(dp1576
g18
I1
sg19
I0
sg20
I41
sg21
I0
sg22
I0
sg23
I39
sg24
I0
sbssg25
S'\x1d\xf9X\x9c<\n\xa9Q\x18\xd4\xe2\xdfDF\x8e\xdf'
p1577
ssS'_usr_local_lib_python2_7_dist-packages_django_core_handlers_wsgi'
p1578
(dp1579
g6
(dp1580
g8
S'_usr_local_lib_python2_7_dist-packages_django_core_handlers_wsgi.html'
p1581
sg10
S'/usr/local/lib/python2.7/dist-packages/django/core/handlers/wsgi'
p1582
sg12
g13
(g14
g15
NtRp1583
(dp1584
g18
I1
sg19
I0
sg20
I160
sg21
I0
sg22
I0
sg23
I114
sg24
I0
sbssg25
S'\xa9I\x9b\xa2\xcb\xd9T\xf7\xd5\x88\xe6%\xe3\xf6\xcc\xf4'
p1585
ssS'_usr_local_lib_python2_7_dist-packages_django_core_serializers_python'
p1586
(dp1587
g6
(dp1588
g8
S'_usr_local_lib_python2_7_dist-packages_django_core_serializers_python.html'
p1589
sg10
S'/usr/local/lib/python2.7/dist-packages/django/core/serializers/python'
p1590
sg12
g13
(g14
g15
NtRp1591
(dp1592
g18
I1
sg19
I0
sg20
I89
sg21
I0
sg22
I0
sg23
I58
sg24
I0
sbssg25
S'\xa7\xda\x9d\x9f\xfa<y\x97\tmg\xb4\xe0\xceX\x9c'
p1593
ssS'_usr_local_lib_python2_7_dist-packages_django_db_migrations_optimizer'
p1594
(dp1595
g6
(dp1596
g8
S'_usr_local_lib_python2_7_dist-packages_django_db_migrations_optimizer.html'
p1597
sg10
S'/usr/local/lib/python2.7/dist-packages/django/db/migrations/optimizer'
p1598
sg12
g13
(g14
g15
NtRp1599
(dp1600
g18
I1
sg19
I0
sg20
I98
sg21
I0
sg22
I0
sg23
I75
sg24
I0
sbssg25
S'\x0c\xcdU\x02\x9f\xf6\xc3\xaa[6@g\xc8\xaa\xc4F'
p1601
ssS'_usr_local_lib_python2_7_dist-packages_django_db_migrations_migration'
p1602
(dp1603
g6
(dp1604
g8
S'_usr_local_lib_python2_7_dist-packages_django_db_migrations_migration.html'
p1605
sg10
S'/usr/local/lib/python2.7/dist-packages/django/db/migrations/migration'
p1606
sg12
g13
(g14
g15
NtRp1607
(dp1608
g18
I1
sg19
I0
sg20
I78
sg21
I0
sg22
I0
sg23
I38
sg24
I0
sbssg25
S'\xaa\xd6DR\xaf\x88\xae\xb3w\xb1\xd8\x1b0RUS'
p1609
ssS'_usr_local_lib_python2_7_dist-packages_django_contrib_sessions_models'
p1610
(dp1611
g6
(dp1612
g8
S'_usr_local_lib_python2_7_dist-packages_django_contrib_sessions_models.html'
p1613
sg10
S'/usr/local/lib/python2.7/dist-packages/django/contrib/sessions/models'
p1614
sg12
g13
(g14
g15
NtRp1615
(dp1616
g18
I1
sg19
I0
sg20
I24
sg21
I0
sg22
I0
sg23
I7
sg24
I0
sbssg25
S'\xdb/\xe7/\xd6\xed\xfa\xb4\xc4\x06Q\x93\xa3\xbcB!'
p1617
ssS'_usr_local_lib_python2_7_dist-packages_django_contrib_contenttypes_fields'
p1618
(dp1619
g6
(dp1620
g8
S'_usr_local_lib_python2_7_dist-packages_django_contrib_contenttypes_fields.html'
p1621
sg10
S'/usr/local/lib/python2.7/dist-packages/django/contrib/contenttypes/fields'
p1622
sg12
g13
(g14
g15
NtRp1623
(dp1624
g18
I1
sg19
I0
sg20
I292
sg21
I0
sg22
I0
sg23
I238
sg24
I0
sbssg25
S'\x9az\xcbe\x92\xcd;\xbe\x86\xb5\xa2\x89\xfb\xe4\x85\x06'
p1625
ssS'_usr_local_lib_python2_7_dist-packages_django_http_response'
p1626
(dp1627
g6
(dp1628
g8
S'_usr_local_lib_python2_7_dist-packages_django_http_response.html'
p1629
sg10
S'/usr/local/lib/python2.7/dist-packages/django/http/response'
p1630
sg12
g13
(g14
g15
NtRp1631
(dp1632
g18
I1
sg19
I0
sg20
I225
sg21
I0
sg22
I0
sg23
I133
sg24
I0
sbssg25
S'\x9c\xb2\x02\xd3\xd6k\x1f\xa7\xa07D\xa1\x16\x0b0 '
p1633
ssS'_usr_local_lib_python2_7_dist-packages_django_db_models___init__'
p1634
(dp1635
g6
(dp1636
g8
S'_usr_local_lib_python2_7_dist-packages_django_db_models___init__.html'
p1637
sg10
S'/usr/local/lib/python2.7/dist-packages/django/db/models/__init__'
p1638
sg12
g13
(g14
g15
NtRp1639
(dp1640
g18
I1
sg19
I0
sg20
I35
sg21
I0
sg22
I0
sg23
I8
sg24
I0
sbssg25
S'\xea}(\x15$\x94\xbc\xb6\xa3tk (\xbbm\x9e'
p1641
ssS'_usr_local_lib_python2_7_dist-packages_django_contrib_messages_api'
p1642
(dp1643
g6
(dp1644
g8
S'_usr_local_lib_python2_7_dist-packages_django_contrib_messages_api.html'
p1645
sg10
S'/usr/local/lib/python2.7/dist-packages/django/contrib/messages/api'
p1646
sg12
g13
(g14
g15
NtRp1647
(dp1648
g18
I1
sg19
I0
sg20
I37
sg21
I0
sg22
I0
sg23
I22
sg24
I0
sbssg25
S'\xec\x0f\xcf\xdc\xaf\x19\x7f]\x05RjO\x0et\x04\x8f'
p1649
ssS'_usr_local_lib_python2_7_dist-packages_django_db_backends_postgresql_psycopg2_client'
p1650
(dp1651
g6
(dp1652
g8
S'_usr_local_lib_python2_7_dist-packages_django_db_backends_postgresql_psycopg2_client.html'
p1653
sg10
S'/usr/local/lib/python2.7/dist-packages/django/db/backends/postgresql_psycopg2/client'
p1654
sg12
g13
(g14
g15
NtRp1655
(dp1656
g18
I1
sg19
I0
sg20
I18
sg21
I0
sg22
I0
sg23
I12
sg24
I0
sbssg25
S'\xb5\xc3*Jj\xf0)\xfd<\x81\x1e\x82\xfb\x95X?'
p1657
ssS'_usr_local_lib_python2_7_dist-packages_django_test_signals'
p1658
(dp1659
g6
(dp1660
g8
S'_usr_local_lib_python2_7_dist-packages_django_test_signals.html'
p1661
sg10
S'/usr/local/lib/python2.7/dist-packages/django/test/signals'
p1662
sg12
g13
(g14
g15
NtRp1663
(dp1664
g18
I1
sg19
I0
sg20
I79
sg21
I0
sg22
I0
sg23
I57
sg24
I0
sbssg25
S'\xf1\xb45\xec\x02\xf3\xa4\x1a\xe7xou\xeb}\xfb\xb4'
p1665
ssS'_usr_local_lib_python2_7_dist-packages_django_db_models_query'
p1666
(dp1667
g6
(dp1668
g8
S'_usr_local_lib_python2_7_dist-packages_django_db_models_query.html'
p1669
sg10
S'/usr/local/lib/python2.7/dist-packages/django/db/models/query'
p1670
sg12
g13
(g14
g15
NtRp1671
(dp1672
g18
I1
sg19
I0
sg20
I992
sg21
I0
sg22
I0
sg23
I657
sg24
I0
sbssg25
S'\xcb\x16#&?\x84\x04V\xb3\xcbe\xe2\xa3\x13\xd5/'
p1673
ssS'_usr_local_lib_python2_7_dist-packages_django_db___init__'
p1674
(dp1675
g6
(dp1676
g8
S'_usr_local_lib_python2_7_dist-packages_django_db___init__.html'
p1677
sg10
S'/usr/local/lib/python2.7/dist-packages/django/db/__init__'
p1678
sg12
g13
(g14
g15
NtRp1679
(dp1680
g18
I1
sg19
I0
sg20
I50
sg21
I0
sg22
I0
sg23
I22
sg24
I0
sbssg25
S'eL\x91\x8b\xa6\xb2\x87\xa1/\x17\xfc\n\xd8/\x10\xa5'
p1681
ssS'_usr_local_lib_python2_7_dist-packages_django_core_validators'
p1682
(dp1683
g6
(dp1684
g8
S'_usr_local_lib_python2_7_dist-packages_django_core_validators.html'
p1685
sg10
S'/usr/local/lib/python2.7/dist-packages/django/core/validators'
p1686
sg12
g13
(g14
g15
NtRp1687
(dp1688
g18
I1
sg19
I0
sg20
I178
sg21
I0
sg22
I0
sg23
I78
sg24
I0
sbssg25
S'*QEV1Ofz+\xb0\xc7\x8b\xff\x04\x87\x12'
p1689
ssS'_usr_local_lib_python2_7_dist-packages_django_views_static'
p1690
(dp1691
g6
(dp1692
g8
S'_usr_local_lib_python2_7_dist-packages_django_views_static.html'
p1693
sg10
S'/usr/local/lib/python2.7/dist-packages/django/views/static'
p1694
sg12
g13
(g14
g15
NtRp1695
(dp1696
g18
I1
sg19
I0
sg20
I73
sg21
I0
sg22
I0
sg23
I57
sg24
I0
sbssg25
S'Bq\n\x9d\xc2\x13\xf7Eg\x8f\xba\xe2\xcc\xec\xbd\x9c'
p1697
ssS'_usr_local_lib_python2_7_dist-packages_psycopg2___init__'
p1698
(dp1699
g6
(dp1700
g8
S'_usr_local_lib_python2_7_dist-packages_psycopg2___init__.html'
p1701
sg10
S'/usr/local/lib/python2.7/dist-packages/psycopg2/__init__'
p1702
sg12
g13
(g14
g15
NtRp1703
(dp1704
g18
I1
sg19
I0
sg20
I50
sg21
I0
sg22
I0
sg23
I8
sg24
I0
sbssg25
S"T$\xc5X\xa3\x8eA'\x90`{{39\x17\xfd"
p1705
ssS'_usr_local_lib_python2_7_dist-packages_django_core___init__'
p1706
(dp1707
g6
(dp1708
g8
S'_usr_local_lib_python2_7_dist-packages_django_core___init__.html'
p1709
sg10
S'/usr/local/lib/python2.7/dist-packages/django/core/__init__'
p1710
sg12
g13
(g14
g15
NtRp1711
(dp1712
g18
I1
sg19
I0
sg20
I0
sg21
I0
sg22
I0
sg23
I0
sg24
I0
sbssg25
S'\xca\xf5\x9f\x7f\x88\xdfa\x831|T\x1d\xbc}\xa5v'
p1713
ssS'_usr_local_lib_python2_7_dist-packages_django_template_loader_tags'
p1714
(dp1715
g6
(dp1716
g8
S'_usr_local_lib_python2_7_dist-packages_django_template_loader_tags.html'
p1717
sg10
S'/usr/local/lib/python2.7/dist-packages/django/template/loader_tags'
p1718
sg12
g13
(g14
g15
NtRp1719
(dp1720
g18
I1
sg19
I0
sg20
I153
sg21
I0
sg22
I0
sg23
I120
sg24
I0
sbssg25
S'\xd5n\x15\xc0\x96?\xc2Z<\xddm[8\x8f!\xd6'
p1721
ssS'_usr_local_lib_python2_7_dist-packages_django_utils_xmlutils'
p1722
(dp1723
g6
(dp1724
g8
S'_usr_local_lib_python2_7_dist-packages_django_utils_xmlutils.html'
p1725
sg10
S'/usr/local/lib/python2.7/dist-packages/django/utils/xmlutils'
p1726
sg12
g13
(g14
g15
NtRp1727
(dp1728
g18
I1
sg19
I0
sg20
I9
sg21
I0
sg22
I0
sg23
I6
sg24
I0
sbssg25
S'#\x9f\x92\x9d2\xeb\xac\x95\x9a\x19\x9e\xe8\xd6 \xaf\x8c'
p1729
ssS'_usr_local_lib_python2_7_dist-packages_django_contrib_contenttypes_checks'
p1730
(dp1731
g6
(dp1732
g8
S'_usr_local_lib_python2_7_dist-packages_django_contrib_contenttypes_checks.html'
p1733
sg10
S'/usr/local/lib/python2.7/dist-packages/django/contrib/contenttypes/checks'
p1734
sg12
g13
(g14
g15
NtRp1735
(dp1736
g18
I1
sg19
I0
sg20
I10
sg21
I0
sg22
I0
sg23
I1
sg24
I0
sbssg25
S'n\xbcO\xc7R\x10\x98\xf4\x90\xb0\x1d\xb9\x891\x9bk'
p1737
ssS'_usr_local_lib_python2_7_dist-packages_django_contrib_sites_apps'
p1738
(dp1739
g6
(dp1740
g8
S'_usr_local_lib_python2_7_dist-packages_django_contrib_sites_apps.html'
p1741
sg10
S'/usr/local/lib/python2.7/dist-packages/django/contrib/sites/apps'
p1742
sg12
g13
(g14
g15
NtRp1743
(dp1744
g18
I1
sg19
I0
sg20
I5
sg21
I0
sg22
I0
sg23
I0
sg24
I0
sbssg25
S'\xd6\x9d6vi\x816w\xe8\xc7|a\xfc&9\xb7'
p1745
ssS'_usr_local_lib_python2_7_dist-packages_django_db_models_query_utils'
p1746
(dp1747
g6
(dp1748
g8
S'_usr_local_lib_python2_7_dist-packages_django_db_models_query_utils.html'
p1749
sg10
S'/usr/local/lib/python2.7/dist-packages/django/db/models/query_utils'
p1750
sg12
g13
(g14
g15
NtRp1751
(dp1752
g18
I1
sg19
I0
sg20
I104
sg21
I0
sg22
I0
sg23
I75
sg24
I0
sbssg25
S'\xc1d\xcd\xc9I`\xca\x11\xac\x83\x07\x1d\xbab\xf6\xfe'
p1753
ssS'_usr_local_lib_python2_7_dist-packages_django_contrib_auth_signals'
p1754
(dp1755
g6
(dp1756
g8
S'_usr_local_lib_python2_7_dist-packages_django_contrib_auth_signals.html'
p1757
sg10
S'/usr/local/lib/python2.7/dist-packages/django/contrib/auth/signals'
p1758
sg12
g13
(g14
g15
NtRp1759
(dp1760
g18
I1
sg19
I0
sg20
I4
sg21
I0
sg22
I0
sg23
I0
sg24
I0
sbssg25
S'\x89\x9c\xaa;\xc3\xa0\x92\xe0\x14HX\x86\x17\\\xf6z'
p1761
ssS'_usr_local_lib_python2_7_dist-packages_django_contrib_staticfiles_management___init__'
p1762
(dp1763
g6
(dp1764
g8
S'_usr_local_lib_python2_7_dist-packages_django_contrib_staticfiles_management___init__.html'
p1765
sg10
S'/usr/local/lib/python2.7/dist-packages/django/contrib/staticfiles/management/__init__'
p1766
sg12
g13
(g14
g15
NtRp1767
(dp1768
g18
I1
sg19
I0
sg20
I0
sg21
I0
sg22
I0
sg23
I0
sg24
I0
sbssg25
S'\xca\xf5\x9f\x7f\x88\xdfa\x831|T\x1d\xbc}\xa5v'
p1769
ssS'_usr_local_lib_python2_7_dist-packages_django_db_backends_signals'
p1770
(dp1771
g6
(dp1772
g8
S'_usr_local_lib_python2_7_dist-packages_django_db_backends_signals.html'
p1773
sg10
S'/usr/local/lib/python2.7/dist-packages/django/db/backends/signals'
p1774
sg12
g13
(g14
g15
NtRp1775
(dp1776
g18
I1
sg19
I0
sg20
I2
sg21
I0
sg22
I0
sg23
I0
sg24
I0
sbssg25
S'\xd0\x7fA\xfb\xdfoE\xbc.\x17\x18\xd7\xa5\xbf\x04\xe4'
p1777
ssS'_usr_local_lib_python2_7_dist-packages_django_http_multipartparser'
p1778
(dp1779
g6
(dp1780
g8
S'_usr_local_lib_python2_7_dist-packages_django_http_multipartparser.html'
p1781
sg10
S'/usr/local/lib/python2.7/dist-packages/django/http/multipartparser'
p1782
sg12
g13
(g14
g15
NtRp1783
(dp1784
g18
I1
sg19
I0
sg20
I351
sg21
I0
sg22
I0
sg23
I295
sg24
I0
sbssg25
S'\xde\x1c\xff1a8\x07.\xdd\xbc\xde\xecU\xc0\xf4\x80'
p1785
ssS'_usr_local_lib_python2_7_dist-packages_django_core_files_uploadedfile'
p1786
(dp1787
g6
(dp1788
g8
S'_usr_local_lib_python2_7_dist-packages_django_core_files_uploadedfile.html'
p1789
sg10
S'/usr/local/lib/python2.7/dist-packages/django/core/files/uploadedfile'
p1790
sg12
g13
(g14
g15
NtRp1791
(dp1792
g18
I1
sg19
I0
sg20
I60
sg21
I0
sg22
I0
sg23
I33
sg24
I0
sbssg25
S'\x85\xba\x80\xf11\xf0\xb9\xbf\x00\xf27D2\xbbX\x9e'
p1793
ssS'_usr_local_lib_python2_7_dist-packages_django_utils_dates'
p1794
(dp1795
g6
(dp1796
g8
S'_usr_local_lib_python2_7_dist-packages_django_utils_dates.html'
p1797
sg10
S'/usr/local/lib/python2.7/dist-packages/django/utils/dates'
p1798
sg12
g13
(g14
g15
NtRp1799
(dp1800
g18
I1
sg19
I0
sg20
I9
sg21
I0
sg22
I0
sg23
I0
sg24
I0
sbssg25
S'\xfb\xce\xe0\x8c\x1a\x0e=\xf2u\xe1UP\xf3&\xfcB'
p1801
ssS'_usr_local_lib_python2_7_dist-packages_django_contrib_messages_storage___init__'
p1802
(dp1803
g6
(dp1804
g8
S'_usr_local_lib_python2_7_dist-packages_django_contrib_messages_storage___init__.html'
p1805
sg10
S'/usr/local/lib/python2.7/dist-packages/django/contrib/messages/storage/__init__'
p1806
sg12
g13
(g14
g15
NtRp1807
(dp1808
g18
I1
sg19
I0
sg20
I4
sg21
I0
sg22
I0
sg23
I1
sg24
I0
sbssg25
S'\xff\x1aH\x10\xec\x80t\x05\xa7\xb4\x9b2$TXX'
p1809
ssS'_usr_local_lib_python2_7_dist-packages_django_db_models_lookups'
p1810
(dp1811
g6
(dp1812
g8
S'_usr_local_lib_python2_7_dist-packages_django_db_models_lookups.html'
p1813
sg10
S'/usr/local/lib/python2.7/dist-packages/django/db/models/lookups'
p1814
sg12
g13
(g14
g15
NtRp1815
(dp1816
g18
I1
sg19
I0
sg20
I254
sg21
I0
sg22
I0
sg23
I85
sg24
I0
sbssg25
S'\xd88\xc0\xe5\x00Mcm\xed\xb2\x08\x9a{\x96PH'
p1817
ssS'_usr_local_lib_python2_7_dist-packages_django_contrib_auth_checks'
p1818
(dp1819
g6
(dp1820
g8
S'_usr_local_lib_python2_7_dist-packages_django_contrib_auth_checks.html'
p1821
sg10
S'/usr/local/lib/python2.7/dist-packages/django/contrib/auth/checks'
p1822
sg12
g13
(g14
g15
NtRp1823
(dp1824
g18
I1
sg19
I0
sg20
I16
sg21
I0
sg22
I0
sg23
I5
sg24
I0
sbssg25
S'\\\xef\xc4\xa3$\xb2gNa\xba\xd0\x03\xa0\x87i\x84'
p1825
ssS'_usr_local_lib_python2_7_dist-packages_django_core_management_commands_test'
p1826
(dp1827
g6
(dp1828
g8
S'_usr_local_lib_python2_7_dist-packages_django_core_management_commands_test.html'
p1829
sg10
S'/usr/local/lib/python2.7/dist-packages/django/core/management/commands/test'
p1830
sg12
g13
(g14
g15
NtRp1831
(dp1832
g18
I1
sg19
I0
sg20
I46
sg21
I0
sg22
I0
sg23
I6
sg24
I0
sbssg25
S'6\xe8[\xcf\x90\x19\x1c\xde~\x9c\x95z\xe4\x17\xc6\x11'
p1833
ssS'_usr_local_lib_python2_7_dist-packages_django_http_request'
p1834
(dp1835
g6
(dp1836
g8
S'_usr_local_lib_python2_7_dist-packages_django_http_request.html'
p1837
sg10
S'/usr/local/lib/python2.7/dist-packages/django/http/request'
p1838
sg12
g13
(g14
g15
NtRp1839
(dp1840
g18
I1
sg19
I0
sg20
I306
sg21
I0
sg22
I0
sg23
I230
sg24
I0
sbssg25
S'v\xce\x1e\xecX\x90\xb5\xa7\xaf\x0e*\xe5M\xf9@\xc0'
p1841
ssS'_usr_local_lib_python2_7_dist-packages_django_apps___init__'
p1842
(dp1843
g6
(dp1844
g8
S'_usr_local_lib_python2_7_dist-packages_django_apps___init__.html'
p1845
sg10
S'/usr/local/lib/python2.7/dist-packages/django/apps/__init__'
p1846
sg12
g13
(g14
g15
NtRp1847
(dp1848
g18
I1
sg19
I0
sg20
I2
sg21
I0
sg22
I0
sg23
I0
sg24
I0
sbssg25
S'\xaf\xd5\x87SN\x8c\x98\xdfl\xc6\x14\xe6\x0eO\xf7\x0c'
p1849
ssS'_usr_local_lib_python2_7_dist-packages_django_core_management_commands_flush'
p1850
(dp1851
g6
(dp1852
g8
S'_usr_local_lib_python2_7_dist-packages_django_core_management_commands_flush.html'
p1853
sg10
S'/usr/local/lib/python2.7/dist-packages/django/core/management/commands/flush'
p1854
sg12
g13
(g14
g15
NtRp1855
(dp1856
g18
I1
sg19
I0
sg20
I52
sg21
I0
sg22
I0
sg23
I10
sg24
I0
sbssg25
S'\xfb\xe70f1\xac=\x8b\xad\xc3\xf1\xf0\xc7\xb9\xaf\xc3'
p1857
ssS'_usr_local_lib_python2_7_dist-packages_django_db_models_options'
p1858
(dp1859
g6
(dp1860
g8
S'_usr_local_lib_python2_7_dist-packages_django_db_models_options.html'
p1861
sg10
S'/usr/local/lib/python2.7/dist-packages/django/db/models/options'
p1862
sg12
g13
(g14
g15
NtRp1863
(dp1864
g18
I1
sg19
I0
sg20
I373
sg21
I0
sg22
I0
sg23
I97
sg24
I0
sbssg25
S'\x8c\x11o\xa1PCq\xf0\x06\r\xb7\x0c\xf9\x85\x1e.'
p1865
ssS'_usr_local_lib_python2_7_dist-packages_django_utils_deconstruct'
p1866
(dp1867
g6
(dp1868
g8
S'_usr_local_lib_python2_7_dist-packages_django_utils_deconstruct.html'
p1869
sg10
S'/usr/local/lib/python2.7/dist-packages/django/utils/deconstruct'
p1870
sg12
g13
(g14
g15
NtRp1871
(dp1872
g18
I1
sg19
I0
sg20
I24
sg21
I0
sg22
I0
sg23
I9
sg24
I0
sbssg25
S'\xa0gQ\xd6C\xb1\xfa\xd1\xe75\xa9\x0c3\xa4\xe7$'
p1873
ssS'_usr_local_lib_python2_7_dist-packages_django_template___init__'
p1874
(dp1875
g6
(dp1876
g8
S'_usr_local_lib_python2_7_dist-packages_django_template___init__.html'
p1877
sg10
S'/usr/local/lib/python2.7/dist-packages/django/template/__init__'
p1878
sg12
g13
(g14
g15
NtRp1879
(dp1880
g18
I1
sg19
I0
sg20
I6
sg21
I0
sg22
I0
sg23
I0
sg24
I0
sbssg25
S'\xbd\xcbV\x04\\\x82\xb5\x18\xd1\xcfk\x85 DD\xba'
p1881
ssS'_usr_local_lib_python2_7_dist-packages_django_db_backends___init__'
p1882
(dp1883
g6
(dp1884
g8
S'_usr_local_lib_python2_7_dist-packages_django_db_backends___init__.html'
p1885
sg10
S'/usr/local/lib/python2.7/dist-packages/django/db/backends/__init__'
p1886
sg12
g13
(g14
g15
NtRp1887
(dp1888
g18
I1
sg19
I0
sg20
I609
sg21
I0
sg22
I0
sg23
I250
sg24
I0
sbssg25
S';f\x03O\x1c\x9d\xf8da\xabY\x945zCl'
p1889
ssS'_usr_local_lib_python2_7_dist-packages_django_utils_datetime_safe'
p1890
(dp1891
g6
(dp1892
g8
S'_usr_local_lib_python2_7_dist-packages_django_utils_datetime_safe.html'
p1893
sg10
S'/usr/local/lib/python2.7/dist-packages/django/utils/datetime_safe'
p1894
sg12
g13
(g14
g15
NtRp1895
(dp1896
g18
I1
sg19
I0
sg20
I56
sg21
I0
sg22
I0
sg23
I42
sg24
I0
sbssg25
S'\xad%\xf7\x8aK@2\xdc\xa2\x8b\x0b\xb5\x90\xc4\xc2\xc1'
p1897
ssS'_usr_local_lib_python2_7_dist-packages_django_core_urlresolvers'
p1898
(dp1899
g6
(dp1900
g8
S'_usr_local_lib_python2_7_dist-packages_django_core_urlresolvers.html'
p1901
sg10
S'/usr/local/lib/python2.7/dist-packages/django/core/urlresolvers'
p1902
sg12
g13
(g14
g15
NtRp1903
(dp1904
g18
I1
sg19
I0
sg20
I379
sg21
I0
sg22
I0
sg23
I307
sg24
I0
sbssg25
S'&1=\xf6\xf5|Z\xab\x87@\xdb\xdc1\x1e\x95\xda'
p1905
ssS'_usr_local_lib_python2_7_dist-packages_django_forms_utils'
p1906
(dp1907
g6
(dp1908
g8
S'_usr_local_lib_python2_7_dist-packages_django_forms_utils.html'
p1909
sg10
S'/usr/local/lib/python2.7/dist-packages/django/forms/utils'
p1910
sg12
g13
(g14
g15
NtRp1911
(dp1912
g18
I1
sg19
I0
sg20
I90
sg21
I0
sg22
I0
sg23
I50
sg24
I0
sbssg25
S'`\xe2E\x8eW\x02\x88\x85\x88\xce\xe8\x91\x00\xa9\x1dh'
p1913
ssS'_usr_local_lib_python2_7_dist-packages_django_db_models_fields___init__'
p1914
(dp1915
g6
(dp1916
g8
S'_usr_local_lib_python2_7_dist-packages_django_db_models_fields___init__.html'
p1917
sg10
S'/usr/local/lib/python2.7/dist-packages/django/db/models/fields/__init__'
p1918
sg12
g13
(g14
g15
NtRp1919
(dp1920
g18
I1
sg19
I0
sg20
I1134
sg21
I0
sg22
I0
sg23
I585
sg24
I0
sbssg25
S'd\xa3:\xf1F\x9d\xfcq\xc4\x9c\x9e\xa5\x91s-\x7f'
p1921
ssS'_usr_local_lib_python2_7_dist-packages_django_middleware_csrf'
p1922
(dp1923
g6
(dp1924
g8
S'_usr_local_lib_python2_7_dist-packages_django_middleware_csrf.html'
p1925
sg10
S'/usr/local/lib/python2.7/dist-packages/django/middleware/csrf'
p1926
sg12
g13
(g14
g15
NtRp1927
(dp1928
g18
I1
sg19
I0
sg20
I81
sg21
I0
sg22
I0
sg23
I56
sg24
I0
sbssg25
S'\xa3\xf7\xd74\x84\x96\xb4\xe5\xd7^\xcb?\x93\xf1L\x82'
p1929
ssS'_usr_local_lib_python2_7_dist-packages_django_db_backends_postgresql_psycopg2_creation'
p1930
(dp1931
g6
(dp1932
g8
S'_usr_local_lib_python2_7_dist-packages_django_db_backends_postgresql_psycopg2_creation.html'
p1933
sg10
S'/usr/local/lib/python2.7/dist-packages/django/db/backends/postgresql_psycopg2/creation'
p1934
sg12
g13
(g14
g15
NtRp1935
(dp1936
g18
I1
sg19
I0
sg20
I32
sg21
I0
sg22
I0
sg23
I6
sg24
I0
sbssg25
S'u\xd4\xf0=\xf3\xe38G\x00E-h>i\x06\xda'
p1937
ssS'_usr_local_lib_python2_7_dist-packages_django_contrib_messages_constants'
p1938
(dp1939
g6
(dp1940
g8
S'_usr_local_lib_python2_7_dist-packages_django_contrib_messages_constants.html'
p1941
sg10
S'/usr/local/lib/python2.7/dist-packages/django/contrib/messages/constants'
p1942
sg12
g13
(g14
g15
NtRp1943
(dp1944
g18
I1
sg19
I0
sg20
I7
sg21
I0
sg22
I0
sg23
I0
sg24
I0
sbssg25
S'\xc7\x16o\xf2\xe8\xb4L\xe1\xe4[\xa2r\x0bS;\xed'
p1945
ssS'_usr_local_lib_python2_7_dist-packages_django_utils_formats'
p1946
(dp1947
g6
(dp1948
g8
S'_usr_local_lib_python2_7_dist-packages_django_utils_formats.html'
p1949
sg10
S'/usr/local/lib/python2.7/dist-packages/django/utils/formats'
p1950
sg12
g13
(g14
g15
NtRp1951
(dp1952
g18
I1
sg19
I0
sg20
I118
sg21
I0
sg22
I0
sg23
I92
sg24
I0
sbssg25
S'\xf51,*CY\xfd\xdbXz4T\xa9J\xd8n'
p1953
ssS'_usr_local_lib_python2_7_dist-packages_django_db_backends_postgresql_psycopg2_operations'
p1954
(dp1955
g6
(dp1956
g8
S'_usr_local_lib_python2_7_dist-packages_django_db_backends_postgresql_psycopg2_operations.html'
p1957
sg10
S'/usr/local/lib/python2.7/dist-packages/django/db/backends/postgresql_psycopg2/operations'
p1958
sg12
g13
(g14
g15
NtRp1959
(dp1960
g18
I1
sg19
I0
sg20
I117
sg21
I0
sg22
I0
sg23
I56
sg24
I0
sbssg25
S'%\xabj\xa9C\xf5XM\x86=\x10\x19\x84h2@'
p1961
ssS'_usr_local_lib_python2_7_dist-packages_django_core_management_commands_createcachetable'
p1962
(dp1963
g6
(dp1964
g8
S'_usr_local_lib_python2_7_dist-packages_django_core_management_commands_createcachetable.html'
p1965
sg10
S'/usr/local/lib/python2.7/dist-packages/django/core/management/commands/createcachetable'
p1966
sg12
g13
(g14
g15
NtRp1967
(dp1968
g18
I1
sg19
I0
sg20
I60
sg21
I0
sg22
I0
sg23
I40
sg24
I0
sbssg25
S'\xa1BWa\x1b\t\xcd-\xb0pp\xc9\xdaQ -'
p1969
ssS'_usr_local_lib_python2_7_dist-packages_django_utils_translation___init__'
p1970
(dp1971
g6
(dp1972
g8
S'_usr_local_lib_python2_7_dist-packages_django_utils_translation___init__.html'
p1973
sg10
S'/usr/local/lib/python2.7/dist-packages/django/utils/translation/__init__'
p1974
sg12
g13
(g14
g15
NtRp1975
(dp1976
g18
I1
sg19
I0
sg20
I115
sg21
I0
sg22
I0
sg23
I52
sg24
I0
sbssg25
S'@\x8aTu@\x04$\x03\xfd\x9a\x81@#2\xba\xbd'
p1977
ssS'_usr_local_lib_python2_7_dist-packages_django_utils_regex_helper'
p1978
(dp1979
g6
(dp1980
g8
S'_usr_local_lib_python2_7_dist-packages_django_utils_regex_helper.html'
p1981
sg10
S'/usr/local/lib/python2.7/dist-packages/django/utils/regex_helper'
p1982
sg12
g13
(g14
g15
NtRp1983
(dp1984
g18
I1
sg19
I0
sg20
I188
sg21
I0
sg22
I0
sg23
I175
sg24
I0
sbssg25
S'\xba?{\xf7\x88\xe08\x0e*k\xc3\xaf\xba1\x80\xbc'
p1985
ssS'_usr_local_lib_python2_7_dist-packages_django_core_servers___init__'
p1986
(dp1987
g6
(dp1988
g8
S'_usr_local_lib_python2_7_dist-packages_django_core_servers___init__.html'
p1989
sg10
S'/usr/local/lib/python2.7/dist-packages/django/core/servers/__init__'
p1990
sg12
g13
(g14
g15
NtRp1991
(dp1992
g18
I1
sg19
I0
sg20
I0
sg21
I0
sg22
I0
sg23
I0
sg24
I0
sbssg25
S'\xca\xf5\x9f\x7f\x88\xdfa\x831|T\x1d\xbc}\xa5v'
p1993
ssS'_usr_local_lib_python2_7_dist-packages_django_db_backends_postgresql_psycopg2___init__'
p1994
(dp1995
g6
(dp1996
g8
S'_usr_local_lib_python2_7_dist-packages_django_db_backends_postgresql_psycopg2___init__.html'
p1997
sg10
S'/usr/local/lib/python2.7/dist-packages/django/db/backends/postgresql_psycopg2/__init__'
p1998
sg12
g13
(g14
g15
NtRp1999
(dp2000
g18
I1
sg19
I0
sg20
I0
sg21
I0
sg22
I0
sg23
I0
sg24
I0
sbssg25
S'\xca\xf5\x9f\x7f\x88\xdfa\x831|T\x1d\xbc}\xa5v'
p2001
ssS'_usr_local_lib_python2_7_dist-packages_django_contrib_sites_shortcuts'
p2002
(dp2003
g6
(dp2004
g8
S'_usr_local_lib_python2_7_dist-packages_django_contrib_sites_shortcuts.html'
p2005
sg10
S'/usr/local/lib/python2.7/dist-packages/django/contrib/sites/shortcuts'
p2006
sg12
g13
(g14
g15
NtRp2007
(dp2008
g18
I1
sg19
I0
sg20
I8
sg21
I0
sg22
I0
sg23
I5
sg24
I0
sbssg25
S'\xde\xd7\x16\xc7\xd5m\xe1\xd4\xa1(}\xe3O\xe4\xe1\x13'
p2009
ssS'_usr_local_lib_python2_7_dist-packages_django___init__'
p2010
(dp2011
g6
(dp2012
g8
S'_usr_local_lib_python2_7_dist-packages_django___init__.html'
p2013
sg10
S'/usr/local/lib/python2.7/dist-packages/django/__init__'
p2014
sg12
g13
(g14
g15
NtRp2015
(dp2016
g18
I1
sg19
I0
sg20
I10
sg21
I0
sg22
I0
sg23
I0
sg24
I0
sbssg25
S'7A\xe2\x8c\x90\n\xbdZ\x13~z\xbfQ\xbf7\x9f'
p2017
sssS'version'
p2018
S'3.7.1'
p2019
sS'settings'
p2020
S'\x98\xa8x\xfe"r\xb5K\x98\xb1N\\\x99\x9e\xf3\xe5'
p2021
sS'format'
p2022
I1
s.